---
triple:          'arm64-apple-darwin'
binary-path:     a.out
relocations:
  - { offsetInCU: 0x59D7, offset: 0x59D7, size: 0x8, addend: 0x0, symName: __ZNSt3__17advanceB8ne180100IPNS_6vectorIdNS_9allocatorIdEEEEllvEEvRT_T0_, symObjAddr: 0x5528, symBinAddr: 0x1000081A0, symSize: 0x38 }
  - { offsetInCU: 0x5A42, offset: 0x5A42, size: 0x8, addend: 0x0, symName: __ZNSt3__17advanceB8ne180100IPdllvEEvRT_T0_, symObjAddr: 0x5BAC, symBinAddr: 0x100008824, symSize: 0x38 }
  - { offsetInCU: 0x5ACD, offset: 0x5ACD, size: 0x8, addend: 0x0, symName: __ZNSt3__124__put_character_sequenceB8ne180100IcNS_11char_traitsIcEEEERNS_13basic_ostreamIT_T0_EES7_PKS4_m, symObjAddr: 0x5E84, symBinAddr: 0x100008AFC, symSize: 0x1EC }
  - { offsetInCU: 0x76BA, offset: 0x76BA, size: 0x8, addend: 0x0, symName: __ZNSt3__1neB8ne180100IPKNS_6vectorIdNS_9allocatorIdEEEEEEbRKNS_11__wrap_iterIT_EESB_, symObjAddr: 0x640, symBinAddr: 0x1000032B8, symSize: 0x34 }
  - { offsetInCU: 0x76FD, offset: 0x76FD, size: 0x8, addend: 0x0, symName: __ZNSt3__1lsB8ne180100INS_11char_traitsIcEEEERNS_13basic_ostreamIcT_EES6_PKc, symObjAddr: 0x1C94, symBinAddr: 0x10000490C, symSize: 0x48 }
  - { offsetInCU: 0x7743, offset: 0x7743, size: 0x8, addend: 0x0, symName: __ZNSt3__1eqB8ne180100IPKNS_6vectorIdNS_9allocatorIdEEEEEEbRKNS_11__wrap_iterIT_EESB_, symObjAddr: 0x1E2C, symBinAddr: 0x100004AA4, symSize: 0x48 }
  - { offsetInCU: 0x7786, offset: 0x7786, size: 0x8, addend: 0x0, symName: __ZNSt3__122__make_exception_guardB8ne180100INS_6vectorIdNS_9allocatorIdEEE16__destroy_vectorEEENS_28__exception_guard_exceptionsIT_EES7_, symObjAddr: 0x2064, symBinAddr: 0x100004CDC, symSize: 0x40 }
  - { offsetInCU: 0x77BB, offset: 0x77BB, size: 0x8, addend: 0x0, symName: __ZNSt3__119__allocate_at_leastB8ne180100INS_9allocatorIdEEEENS_19__allocation_resultINS_16allocator_traitsIT_E7pointerEEERS5_m, symObjAddr: 0x2450, symBinAddr: 0x1000050C8, symSize: 0x40 }
  - { offsetInCU: 0x77FE, offset: 0x77FE, size: 0x8, addend: 0x0, symName: __ZNSt3__13minB8ne180100ImEERKT_S3_S3_, symObjAddr: 0x24F4, symBinAddr: 0x10000516C, symSize: 0x2C }
  - { offsetInCU: 0x7A2B, offset: 0x7A2B, size: 0x8, addend: 0x0, symName: __ZNSt3__13minB8ne180100ImNS_6__lessIvvEEEERKT_S5_S5_T0_, symObjAddr: 0x258C, symBinAddr: 0x100005204, symSize: 0x54 }
  - { offsetInCU: 0x7ACA, offset: 0x7ACA, size: 0x8, addend: 0x0, symName: __ZNSt3__120__throw_length_errorB8ne180100EPKc, symObjAddr: 0x2668, symBinAddr: 0x1000052E0, symSize: 0x64 }
  - { offsetInCU: 0x7AF2, offset: 0x7AF2, size: 0x8, addend: 0x0, symName: __ZNSt3__117__libcpp_allocateB8ne180100Emm, symObjAddr: 0x27D8, symBinAddr: 0x100005450, symSize: 0x60 }
  - { offsetInCU: 0x7B4C, offset: 0x7B4C, size: 0x8, addend: 0x0, symName: __ZNSt3__124__is_overaligned_for_newB8ne180100Em, symObjAddr: 0x2838, symBinAddr: 0x1000054B0, symSize: 0x20 }
  - { offsetInCU: 0x7B7A, offset: 0x7B7A, size: 0x8, addend: 0x0, symName: __ZNSt3__121__libcpp_operator_newB8ne180100IJmSt11align_val_tEEEPvDpT_, symObjAddr: 0x2858, symBinAddr: 0x1000054D0, symSize: 0x2C }
  - { offsetInCU: 0x7BC7, offset: 0x7BC7, size: 0x8, addend: 0x0, symName: __ZNSt3__121__libcpp_operator_newB8ne180100IJmEEEPvDpT_, symObjAddr: 0x2884, symBinAddr: 0x1000054FC, symSize: 0x24 }
  - { offsetInCU: 0x7C00, offset: 0x7C00, size: 0x8, addend: 0x0, symName: __ZNSt3__112__to_addressB8ne180100IdEEPT_S2_, symObjAddr: 0x2980, symBinAddr: 0x1000055F8, symSize: 0x14 }
  - { offsetInCU: 0x7C35, offset: 0x7C35, size: 0x8, addend: 0x0, symName: __ZNSt3__119__libcpp_deallocateB8ne180100EPvmm, symObjAddr: 0x2CDC, symBinAddr: 0x100005954, symSize: 0x60 }
  - { offsetInCU: 0x7C9A, offset: 0x7C9A, size: 0x8, addend: 0x0, symName: __ZNSt3__127__do_deallocate_handle_sizeB8ne180100IJSt11align_val_tEEEvPvmDpT_, symObjAddr: 0x2D3C, symBinAddr: 0x1000059B4, symSize: 0x30 }
  - { offsetInCU: 0x7CED, offset: 0x7CED, size: 0x8, addend: 0x0, symName: __ZNSt3__127__do_deallocate_handle_sizeB8ne180100IJEEEvPvmDpT_, symObjAddr: 0x2D6C, symBinAddr: 0x1000059E4, symSize: 0x28 }
  - { offsetInCU: 0x7D2B, offset: 0x7D2B, size: 0x8, addend: 0x0, symName: __ZNSt3__124__libcpp_operator_deleteB8ne180100IJPvSt11align_val_tEEEvDpT_, symObjAddr: 0x2D94, symBinAddr: 0x100005A0C, symSize: 0x2C }
  - { offsetInCU: 0x7D74, offset: 0x7D74, size: 0x8, addend: 0x0, symName: __ZNSt3__124__libcpp_operator_deleteB8ne180100IJPvEEEvDpT_, symObjAddr: 0x2DC0, symBinAddr: 0x100005A38, symSize: 0x24 }
  - { offsetInCU: 0x7DA9, offset: 0x7DA9, size: 0x8, addend: 0x0, symName: __ZNSt3__122__make_exception_guardB8ne180100INS_6vectorINS1_IdNS_9allocatorIdEEEENS2_IS4_EEE16__destroy_vectorEEENS_28__exception_guard_exceptionsIT_EES9_, symObjAddr: 0x2F9C, symBinAddr: 0x100005C14, symSize: 0x40 }
  - { offsetInCU: 0x7DDE, offset: 0x7DDE, size: 0x8, addend: 0x0, symName: __ZNSt3__119__allocate_at_leastB8ne180100INS_9allocatorINS_6vectorIdNS1_IdEEEEEEEENS_19__allocation_resultINS_16allocator_traitsIT_E7pointerEEERS8_m, symObjAddr: 0x3398, symBinAddr: 0x100006010, symSize: 0x40 }
  - { offsetInCU: 0x7E21, offset: 0x7E21, size: 0x8, addend: 0x0, symName: __ZNSt3__112__to_addressB8ne180100INS_6vectorIdNS_9allocatorIdEEEEEEPT_S6_, symObjAddr: 0x3614, symBinAddr: 0x10000628C, symSize: 0x14 }
  - { offsetInCU: 0x7E56, offset: 0x7E56, size: 0x8, addend: 0x0, symName: __ZNSt3__130__uninitialized_allocator_copyB8ne180100INS_9allocatorIdEEPdS3_S3_EET2_RT_T0_T1_S4_, symObjAddr: 0x3984, symBinAddr: 0x1000065FC, symSize: 0x80 }
  - { offsetInCU: 0x7EF3, offset: 0x7EF3, size: 0x8, addend: 0x0, symName: __ZNSt3__114__unwrap_rangeB8ne180100IPdS1_EENS_4pairIT0_S3_EET_S5_, symObjAddr: 0x3A04, symBinAddr: 0x10000667C, symSize: 0x60 }
  - { offsetInCU: 0x7F3F, offset: 0x7F3F, size: 0x8, addend: 0x0, symName: __ZNSt3__135__uninitialized_allocator_copy_implB8ne180100INS_9allocatorIdEEdddLPv0EEEPT2_RT_PT0_S9_S5_, symObjAddr: 0x3A64, symBinAddr: 0x1000066DC, symSize: 0x38 }
  - { offsetInCU: 0x7FC0, offset: 0x7FC0, size: 0x8, addend: 0x0, symName: __ZNSt3__113__unwrap_iterB8ne180100IPdNS_18__unwrap_iter_implIS1_Lb1EEELi0EEEDTclsrT0_8__unwrapclsr3stdE7declvalIT_EEEES5_, symObjAddr: 0x3A9C, symBinAddr: 0x100006714, symSize: 0x24 }
  - { offsetInCU: 0x8004, offset: 0x8004, size: 0x8, addend: 0x0, symName: __ZNSt3__113__rewrap_iterB8ne180100IPdS1_NS_18__unwrap_iter_implIS1_Lb1EEEEET_S4_T0_, symObjAddr: 0x3AC0, symBinAddr: 0x100006738, symSize: 0x3C }
  - { offsetInCU: 0x8059, offset: 0x8059, size: 0x8, addend: 0x0, symName: __ZNSt3__19make_pairB8ne180100IPdS1_EENS_4pairINS_18__unwrap_ref_decayIT_E4typeENS3_IT0_E4typeEEEOS4_OS7_, symObjAddr: 0x3AFC, symBinAddr: 0x100006774, symSize: 0x38 }
  - { offsetInCU: 0x81AB, offset: 0x81AB, size: 0x8, addend: 0x0, symName: __ZNSt3__14copyB8ne180100IPdS1_EET0_T_S3_S2_, symObjAddr: 0x3BA4, symBinAddr: 0x10000681C, symSize: 0x40 }
  - { offsetInCU: 0x8205, offset: 0x8205, size: 0x8, addend: 0x0, symName: __ZNSt3__16__copyB8ne180100INS_17_ClassicAlgPolicyEPdS2_S2_EENS_4pairIT0_T2_EES4_T1_S5_, symObjAddr: 0x3BE4, symBinAddr: 0x10000685C, symSize: 0x44 }
  - { offsetInCU: 0x8271, offset: 0x8271, size: 0x8, addend: 0x0, symName: __ZNSt3__123__dispatch_copy_or_moveB8ne180100INS_17_ClassicAlgPolicyENS_11__copy_loopIS1_EENS_14__copy_trivialEPdS5_S5_EENS_4pairIT2_T4_EES7_T3_S8_, symObjAddr: 0x3C28, symBinAddr: 0x1000068A0, symSize: 0x44 }
  - { offsetInCU: 0x82EF, offset: 0x82EF, size: 0x8, addend: 0x0, symName: __ZNSt3__121__unwrap_and_dispatchB8ne180100INS_10__overloadINS_11__copy_loopINS_17_ClassicAlgPolicyEEENS_14__copy_trivialEEEPdS7_S7_Li0EEENS_4pairIT0_T2_EES9_T1_SA_, symObjAddr: 0x3C6C, symBinAddr: 0x1000068E4, symSize: 0xB4 }
  - { offsetInCU: 0x83C3, offset: 0x83C3, size: 0x8, addend: 0x0, symName: __ZNSt3__114__rewrap_rangeB8ne180100IPdS1_EET_S2_T0_, symObjAddr: 0x3D68, symBinAddr: 0x1000069E0, symSize: 0x2C }
  - { offsetInCU: 0x840F, offset: 0x840F, size: 0x8, addend: 0x0, symName: __ZNSt3__119__copy_trivial_implB8ne180100IddEENS_4pairIPT_PT0_EES3_S3_S5_, symObjAddr: 0x3D94, symBinAddr: 0x100006A0C, symSize: 0x80 }
  - { offsetInCU: 0x8477, offset: 0x8477, size: 0x8, addend: 0x0, symName: __ZNSt3__119__constexpr_memmoveB8ne180100IddLi0EEEPT_S2_PT0_NS_15__element_countE, symObjAddr: 0x3E14, symBinAddr: 0x100006A8C, symSize: 0x64 }
  - { offsetInCU: 0x84E5, offset: 0x84E5, size: 0x8, addend: 0x0, symName: __ZNSt3__19make_pairB8ne180100IRPdS1_EENS_4pairINS_18__unwrap_ref_decayIT_E4typeENS4_IT0_E4typeEEEOS5_OS8_, symObjAddr: 0x3E78, symBinAddr: 0x100006AF0, symSize: 0x38 }
  - { offsetInCU: 0x8587, offset: 0x8587, size: 0x8, addend: 0x0, symName: __ZNSt3__130__uninitialized_allocator_copyB8ne180100INS_9allocatorINS_6vectorIdNS1_IdEEEEEEPS4_S6_S6_EET2_RT_T0_T1_S7_, symObjAddr: 0x478C, symBinAddr: 0x100007404, symSize: 0x80 }
  - { offsetInCU: 0x8624, offset: 0x8624, size: 0x8, addend: 0x0, symName: __ZNSt3__114__unwrap_rangeB8ne180100IPNS_6vectorIdNS_9allocatorIdEEEES5_EENS_4pairIT0_S7_EET_S9_, symObjAddr: 0x480C, symBinAddr: 0x100007484, symSize: 0x60 }
  - { offsetInCU: 0x8670, offset: 0x8670, size: 0x8, addend: 0x0, symName: __ZNSt3__135__uninitialized_allocator_copy_implB8ne180100INS_9allocatorINS_6vectorIdNS1_IdEEEEEEPS4_S6_S6_EET2_RT_T0_T1_S7_, symObjAddr: 0x486C, symBinAddr: 0x1000074E4, symSize: 0xF4 }
  - { offsetInCU: 0x870E, offset: 0x870E, size: 0x8, addend: 0x0, symName: __ZNSt3__113__unwrap_iterB8ne180100IPNS_6vectorIdNS_9allocatorIdEEEENS_18__unwrap_iter_implIS5_Lb1EEELi0EEEDTclsrT0_8__unwrapclsr3stdE7declvalIT_EEEES9_, symObjAddr: 0x4960, symBinAddr: 0x1000075D8, symSize: 0x24 }
  - { offsetInCU: 0x8752, offset: 0x8752, size: 0x8, addend: 0x0, symName: __ZNSt3__113__rewrap_iterB8ne180100IPNS_6vectorIdNS_9allocatorIdEEEES5_NS_18__unwrap_iter_implIS5_Lb1EEEEET_S8_T0_, symObjAddr: 0x4984, symBinAddr: 0x1000075FC, symSize: 0x3C }
  - { offsetInCU: 0x87A7, offset: 0x87A7, size: 0x8, addend: 0x0, symName: __ZNSt3__19make_pairB8ne180100IPNS_6vectorIdNS_9allocatorIdEEEES5_EENS_4pairINS_18__unwrap_ref_decayIT_E4typeENS7_IT0_E4typeEEEOS8_OSB_, symObjAddr: 0x49C0, symBinAddr: 0x100007638, symSize: 0x38 }
  - { offsetInCU: 0x88CA, offset: 0x88CA, size: 0x8, addend: 0x0, symName: __ZNSt3__122__make_exception_guardB8ne180100INS_29_AllocatorDestroyRangeReverseINS_9allocatorINS_6vectorIdNS2_IdEEEEEEPS5_EEEENS_28__exception_guard_exceptionsIT_EESA_, symObjAddr: 0x4A68, symBinAddr: 0x1000076E0, symSize: 0x4C }
  - { offsetInCU: 0x8900, offset: 0x8900, size: 0x8, addend: 0x0, symName: __ZNSt3__119__allocator_destroyB8ne180100INS_9allocatorINS_6vectorIdNS1_IdEEEEEENS_16reverse_iteratorIPS4_EES8_EEvRT_T0_T1_, symObjAddr: 0x4CF8, symBinAddr: 0x100007970, symSize: 0x70 }
  - { offsetInCU: 0x8963, offset: 0x8963, size: 0x8, addend: 0x0, symName: __ZNSt3__1neB8ne180100IPNS_6vectorIdNS_9allocatorIdEEEES5_EEbRKNS_16reverse_iteratorIT_EERKNS6_IT0_EE, symObjAddr: 0x4D9C, symBinAddr: 0x100007A14, symSize: 0x48 }
  - { offsetInCU: 0x89AF, offset: 0x89AF, size: 0x8, addend: 0x0, symName: __ZNSt3__112__to_addressB8ne180100INS_16reverse_iteratorIPNS_6vectorIdNS_9allocatorIdEEEEEEvEEu7__decayIDTclsr19__to_address_helperIT_EE6__callclsr3stdE7declvalIRKS8_EEEEESA_, symObjAddr: 0x4DE4, symBinAddr: 0x100007A5C, symSize: 0x24 }
  - { offsetInCU: 0x8A61, offset: 0x8A61, size: 0x8, addend: 0x0, symName: __ZNSt3__18distanceB8ne180100IPNS_6vectorIdNS_9allocatorIdEEEEEENS_15iterator_traitsIT_E15difference_typeES7_S7_, symObjAddr: 0x52B0, symBinAddr: 0x100007F28, symSize: 0x2C }
  - { offsetInCU: 0x8AA4, offset: 0x8AA4, size: 0x8, addend: 0x0, symName: __ZNSt3__14nextB8ne180100IPNS_6vectorIdNS_9allocatorIdEEEELi0EEET_S6_NS_15iterator_traitsIS6_E15difference_typeE, symObjAddr: 0x52DC, symBinAddr: 0x100007F54, symSize: 0x34 }
  - { offsetInCU: 0x8AED, offset: 0x8AED, size: 0x8, addend: 0x0, symName: __ZNSt3__14copyB8ne180100IPNS_6vectorIdNS_9allocatorIdEEEES5_EET0_T_S7_S6_, symObjAddr: 0x5310, symBinAddr: 0x100007F88, symSize: 0x40 }
  - { offsetInCU: 0x8B47, offset: 0x8B47, size: 0x8, addend: 0x0, symName: __ZNSt3__16__copyB8ne180100INS_17_ClassicAlgPolicyEPNS_6vectorIdNS_9allocatorIdEEEES6_S6_EENS_4pairIT0_T2_EES8_T1_S9_, symObjAddr: 0x5350, symBinAddr: 0x100007FC8, symSize: 0x44 }
  - { offsetInCU: 0x8BB3, offset: 0x8BB3, size: 0x8, addend: 0x0, symName: __ZNSt3__121__convert_to_integralB8ne180100El, symObjAddr: 0x5560, symBinAddr: 0x1000081D8, symSize: 0x14 }
  - { offsetInCU: 0x8BDF, offset: 0x8BDF, size: 0x8, addend: 0x0, symName: __ZNSt3__19__advanceB8ne180100IPNS_6vectorIdNS_9allocatorIdEEEEEEvRT_NS_15iterator_traitsIS6_E15difference_typeENS_26random_access_iterator_tagE, symObjAddr: 0x5574, symBinAddr: 0x1000081EC, symSize: 0x30 }
  - { offsetInCU: 0x8C28, offset: 0x8C28, size: 0x8, addend: 0x0, symName: __ZNSt3__123__dispatch_copy_or_moveB8ne180100INS_17_ClassicAlgPolicyENS_11__copy_loopIS1_EENS_14__copy_trivialEPNS_6vectorIdNS_9allocatorIdEEEES9_S9_EENS_4pairIT2_T4_EESB_T3_SC_, symObjAddr: 0x55A4, symBinAddr: 0x10000821C, symSize: 0x44 }
  - { offsetInCU: 0x8CA6, offset: 0x8CA6, size: 0x8, addend: 0x0, symName: __ZNSt3__121__unwrap_and_dispatchB8ne180100INS_10__overloadINS_11__copy_loopINS_17_ClassicAlgPolicyEEENS_14__copy_trivialEEEPNS_6vectorIdNS_9allocatorIdEEEESB_SB_Li0EEENS_4pairIT0_T2_EESD_T1_SE_, symObjAddr: 0x55E8, symBinAddr: 0x100008260, symSize: 0xB4 }
  - { offsetInCU: 0x8D8F, offset: 0x8D8F, size: 0x8, addend: 0x0, symName: __ZNSt3__114__rewrap_rangeB8ne180100IPNS_6vectorIdNS_9allocatorIdEEEES5_EET_S6_T0_, symObjAddr: 0x5724, symBinAddr: 0x10000839C, symSize: 0x2C }
  - { offsetInCU: 0x8DDB, offset: 0x8DDB, size: 0x8, addend: 0x0, symName: __ZNSt3__18distanceB8ne180100IPdEENS_15iterator_traitsIT_E15difference_typeES3_S3_, symObjAddr: 0x59B8, symBinAddr: 0x100008630, symSize: 0x2C }
  - { offsetInCU: 0x8E1E, offset: 0x8E1E, size: 0x8, addend: 0x0, symName: __ZNSt3__14nextB8ne180100IPdLi0EEET_S2_NS_15iterator_traitsIS2_E15difference_typeE, symObjAddr: 0x59E4, symBinAddr: 0x10000865C, symSize: 0x34 }
  - { offsetInCU: 0x8E67, offset: 0x8E67, size: 0x8, addend: 0x0, symName: __ZNSt3__19__advanceB8ne180100IPdEEvRT_NS_15iterator_traitsIS2_E15difference_typeENS_26random_access_iterator_tagE, symObjAddr: 0x5BE4, symBinAddr: 0x10000885C, symSize: 0x28 }
  - { offsetInCU: 0x8EB0, offset: 0x8EB0, size: 0x8, addend: 0x0, symName: __ZNSt3__13maxB8ne180100ImEERKT_S3_S3_, symObjAddr: 0x5C64, symBinAddr: 0x1000088DC, symSize: 0x2C }
  - { offsetInCU: 0x8EF3, offset: 0x8EF3, size: 0x8, addend: 0x0, symName: __ZNSt3__13maxB8ne180100ImNS_6__lessIvvEEEERKT_S5_S5_T0_, symObjAddr: 0x5C90, symBinAddr: 0x100008908, symSize: 0x54 }
  - { offsetInCU: 0x8F4D, offset: 0x8F4D, size: 0x8, addend: 0x0, symName: __ZNSt3__110__distanceB8ne180100IPdEENS_15iterator_traitsIT_E15difference_typeES3_S3_NS_26random_access_iterator_tagE, symObjAddr: 0x5CE4, symBinAddr: 0x10000895C, symSize: 0x28 }
  - { offsetInCU: 0x8F9A, offset: 0x8F9A, size: 0x8, addend: 0x0, symName: __ZNSt3__110__distanceB8ne180100IPNS_6vectorIdNS_9allocatorIdEEEEEENS_15iterator_traitsIT_E15difference_typeES7_S7_NS_26random_access_iterator_tagE, symObjAddr: 0x5D64, symBinAddr: 0x1000089DC, symSize: 0x28 }
  - { offsetInCU: 0x8FE7, offset: 0x8FE7, size: 0x8, addend: 0x0, symName: __ZNSt3__116__pad_and_outputB8ne180100IcNS_11char_traitsIcEEEENS_19ostreambuf_iteratorIT_T0_EES6_PKS4_S8_S8_RNS_8ios_baseES4_, symObjAddr: 0x60C0, symBinAddr: 0x100008D38, symSize: 0x240 }
  - { offsetInCU: 0x90B6, offset: 0x90B6, size: 0x8, addend: 0x0, symName: __ZNSt3__112__to_addressB8ne180100IcEEPT_S2_, symObjAddr: 0x6628, symBinAddr: 0x1000092A0, symSize: 0x14 }
  - { offsetInCU: 0x911E, offset: 0x911E, size: 0x8, addend: 0x0, symName: __ZNSt3__19use_facetB8ne180100INS_5ctypeIcEEEERKT_RKNS_6localeE, symObjAddr: 0x68E0, symBinAddr: 0x100009558, symSize: 0x2C }
  - { offsetInCU: 0x95EB, offset: 0x95EB, size: 0x8, addend: 0x0, symName: __ZNSt3__118__constexpr_strlenB8ne180100EPKc, symObjAddr: 0x6978, symBinAddr: 0x1000095F0, symSize: 0x24 }
  - { offsetInCU: 0x9B11, offset: 0x9B11, size: 0x8, addend: 0x0, symName: __ZSt28__throw_bad_array_new_lengthB8ne180100v, symObjAddr: 0x27A4, symBinAddr: 0x10000541C, symSize: 0x34 }
  - { offsetInCU: 0xC7C4, offset: 0xC7C4, size: 0x8, addend: 0x0, symName: __ZN2la6matrixlsERNSt3__113basic_ostreamIcNS1_11char_traitsIcEEEERKNS0_6MatrixE, symObjAddr: 0x1B28, symBinAddr: 0x1000047A0, symSize: 0x16C }
  - { offsetInCU: 0xC857, offset: 0xC857, size: 0x8, addend: 0x0, symName: __ZN2la6matrix6MatrixC2Emm, symObjAddr: 0x0, symBinAddr: 0x100002C78, symSize: 0x98 }
  - { offsetInCU: 0xC89F, offset: 0xC89F, size: 0x8, addend: 0x0, symName: __ZNSt3__16vectorIdNS_9allocatorIdEEEC1Em, symObjAddr: 0x98, symBinAddr: 0x100002D10, symSize: 0x34 }
  - { offsetInCU: 0xC8DA, offset: 0xC8DA, size: 0x8, addend: 0x0, symName: __ZNSt3__16vectorINS0_IdNS_9allocatorIdEEEENS1_IS3_EEEC1EmRKS3_, symObjAddr: 0xCC, symBinAddr: 0x100002D44, symSize: 0x3C }
  - { offsetInCU: 0xC924, offset: 0xC924, size: 0x8, addend: 0x0, symName: __ZNSt3__16vectorIdNS_9allocatorIdEEED1B8ne180100Ev, symObjAddr: 0x108, symBinAddr: 0x100002D80, symSize: 0x2C }
  - { offsetInCU: 0xC94E, offset: 0xC94E, size: 0x8, addend: 0x0, symName: __ZN2la6matrix6MatrixC1Emm, symObjAddr: 0x134, symBinAddr: 0x100002DAC, symSize: 0x3C }
  - { offsetInCU: 0xC996, offset: 0xC996, size: 0x8, addend: 0x0, symName: __ZN2la6matrix6MatrixC2Emmd, symObjAddr: 0x170, symBinAddr: 0x100002DE8, symSize: 0xA0 }
  - { offsetInCU: 0xC9EC, offset: 0xC9EC, size: 0x8, addend: 0x0, symName: __ZNSt3__16vectorIdNS_9allocatorIdEEEC1EmRKd, symObjAddr: 0x210, symBinAddr: 0x100002E88, symSize: 0x3C }
  - { offsetInCU: 0xCA36, offset: 0xCA36, size: 0x8, addend: 0x0, symName: __ZN2la6matrix6MatrixC1Emmd, symObjAddr: 0x24C, symBinAddr: 0x100002EC4, symSize: 0x44 }
  - { offsetInCU: 0xCA8C, offset: 0xCA8C, size: 0x8, addend: 0x0, symName: __ZN2la6matrix6MatrixC2Em, symObjAddr: 0x290, symBinAddr: 0x100002F08, symSize: 0x38 }
  - { offsetInCU: 0xCAC6, offset: 0xCAC6, size: 0x8, addend: 0x0, symName: __ZN2la6matrix6MatrixC1Em, symObjAddr: 0x2C8, symBinAddr: 0x100002F40, symSize: 0x38 }
  - { offsetInCU: 0xCB00, offset: 0xCB00, size: 0x8, addend: 0x0, symName: __ZN2la6matrix6MatrixC2ERKNSt3__16vectorINS3_IdNS2_9allocatorIdEEEENS4_IS6_EEEE, symObjAddr: 0x300, symBinAddr: 0x100002F78, symSize: 0x208 }
  - { offsetInCU: 0xCB8B, offset: 0xCB8B, size: 0x8, addend: 0x0, symName: __ZNKSt3__16vectorINS0_IdNS_9allocatorIdEEEENS1_IS3_EEE4sizeB8ne180100Ev, symObjAddr: 0x508, symBinAddr: 0x100003180, symSize: 0x28 }
  - { offsetInCU: 0xCBB1, offset: 0xCBB1, size: 0x8, addend: 0x0, symName: __ZNKSt3__16vectorINS0_IdNS_9allocatorIdEEEENS1_IS3_EEE5emptyB8ne180100Ev, symObjAddr: 0x530, symBinAddr: 0x1000031A8, symSize: 0x28 }
  - { offsetInCU: 0xCBD7, offset: 0xCBD7, size: 0x8, addend: 0x0, symName: __ZNKSt3__16vectorINS0_IdNS_9allocatorIdEEEENS1_IS3_EEEixB8ne180100Em, symObjAddr: 0x558, symBinAddr: 0x1000031D0, symSize: 0x2C }
  - { offsetInCU: 0xCC0E, offset: 0xCC0E, size: 0x8, addend: 0x0, symName: __ZNKSt3__16vectorIdNS_9allocatorIdEEE4sizeB8ne180100Ev, symObjAddr: 0x584, symBinAddr: 0x1000031FC, symSize: 0x28 }
  - { offsetInCU: 0xCC34, offset: 0xCC34, size: 0x8, addend: 0x0, symName: __ZNSt3__16vectorINS0_IdNS_9allocatorIdEEEENS1_IS3_EEEC1ERKS5_, symObjAddr: 0x5AC, symBinAddr: 0x100003224, symSize: 0x34 }
  - { offsetInCU: 0xCC6F, offset: 0xCC6F, size: 0x8, addend: 0x0, symName: __ZNKSt3__16vectorINS0_IdNS_9allocatorIdEEEENS1_IS3_EEE5beginB8ne180100Ev, symObjAddr: 0x5E0, symBinAddr: 0x100003258, symSize: 0x30 }
  - { offsetInCU: 0xCC97, offset: 0xCC97, size: 0x8, addend: 0x0, symName: __ZNKSt3__16vectorINS0_IdNS_9allocatorIdEEEENS1_IS3_EEE3endB8ne180100Ev, symObjAddr: 0x610, symBinAddr: 0x100003288, symSize: 0x30 }
  - { offsetInCU: 0xCCBF, offset: 0xCCBF, size: 0x8, addend: 0x0, symName: __ZNKSt3__111__wrap_iterIPKNS_6vectorIdNS_9allocatorIdEEEEEdeB8ne180100Ev, symObjAddr: 0x674, symBinAddr: 0x1000032EC, symSize: 0x18 }
  - { offsetInCU: 0xCCE5, offset: 0xCCE5, size: 0x8, addend: 0x0, symName: __ZNSt16invalid_argumentC1B8ne180100EPKc, symObjAddr: 0x68C, symBinAddr: 0x100003304, symSize: 0x34 }
  - { offsetInCU: 0xCD1D, offset: 0xCD1D, size: 0x8, addend: 0x0, symName: __ZNSt3__111__wrap_iterIPKNS_6vectorIdNS_9allocatorIdEEEEEppB8ne180100Ev, symObjAddr: 0x6C0, symBinAddr: 0x100003338, symSize: 0x20 }
  - { offsetInCU: 0xCD43, offset: 0xCD43, size: 0x8, addend: 0x0, symName: __ZNSt3__16vectorINS0_IdNS_9allocatorIdEEEENS1_IS3_EEED1B8ne180100Ev, symObjAddr: 0x6E0, symBinAddr: 0x100003358, symSize: 0x2C }
  - { offsetInCU: 0xCD6D, offset: 0xCD6D, size: 0x8, addend: 0x0, symName: __ZN2la6matrix6MatrixC1ERKNSt3__16vectorINS3_IdNS2_9allocatorIdEEEENS4_IS6_EEEE, symObjAddr: 0x70C, symBinAddr: 0x100003384, symSize: 0x34 }
  - { offsetInCU: 0xCDA7, offset: 0xCDA7, size: 0x8, addend: 0x0, symName: __ZN2la6matrix6MatrixC2ERKS1_, symObjAddr: 0x740, symBinAddr: 0x1000033B8, symSize: 0x54 }
  - { offsetInCU: 0xCDE1, offset: 0xCDE1, size: 0x8, addend: 0x0, symName: __ZN2la6matrix6MatrixC1ERKS1_, symObjAddr: 0x794, symBinAddr: 0x10000340C, symSize: 0x34 }
  - { offsetInCU: 0xCE1B, offset: 0xCE1B, size: 0x8, addend: 0x0, symName: __ZN2la6matrix6MatrixC2EOS1_, symObjAddr: 0x7C8, symBinAddr: 0x100003440, symSize: 0x64 }
  - { offsetInCU: 0xCE55, offset: 0xCE55, size: 0x8, addend: 0x0, symName: __ZNSt3__16vectorINS0_IdNS_9allocatorIdEEEENS1_IS3_EEEC1B8ne180100EOS5_, symObjAddr: 0x82C, symBinAddr: 0x1000034A4, symSize: 0x34 }
  - { offsetInCU: 0xCE90, offset: 0xCE90, size: 0x8, addend: 0x0, symName: __ZN2la6matrix6MatrixC1EOS1_, symObjAddr: 0x860, symBinAddr: 0x1000034D8, symSize: 0x34 }
  - { offsetInCU: 0xCECA, offset: 0xCECA, size: 0x8, addend: 0x0, symName: __ZN2la6matrix6MatrixaSERKS1_, symObjAddr: 0x894, symBinAddr: 0x10000350C, symSize: 0x70 }
  - { offsetInCU: 0xCF00, offset: 0xCF00, size: 0x8, addend: 0x0, symName: __ZNSt3__16vectorINS0_IdNS_9allocatorIdEEEENS1_IS3_EEEaSB8ne180100ERKS5_, symObjAddr: 0x904, symBinAddr: 0x10000357C, symSize: 0x68 }
  - { offsetInCU: 0xCF37, offset: 0xCF37, size: 0x8, addend: 0x0, symName: __ZN2la6matrix6MatrixaSEOS1_, symObjAddr: 0x96C, symBinAddr: 0x1000035E4, symSize: 0x80 }
  - { offsetInCU: 0xCF6D, offset: 0xCF6D, size: 0x8, addend: 0x0, symName: __ZNSt3__16vectorINS0_IdNS_9allocatorIdEEEENS1_IS3_EEEaSB8ne180100EOS5_, symObjAddr: 0x9EC, symBinAddr: 0x100003664, symSize: 0x34 }
  - { offsetInCU: 0xCFA4, offset: 0xCFA4, size: 0x8, addend: 0x0, symName: __ZN2la6matrix6MatrixclEmm, symObjAddr: 0xA20, symBinAddr: 0x100003698, symSize: 0xD0 }
  - { offsetInCU: 0xCFE8, offset: 0xCFE8, size: 0x8, addend: 0x0, symName: __ZNSt12out_of_rangeC1B8ne180100EPKc, symObjAddr: 0xAF0, symBinAddr: 0x100003768, symSize: 0x34 }
  - { offsetInCU: 0xD020, offset: 0xD020, size: 0x8, addend: 0x0, symName: __ZNSt3__16vectorINS0_IdNS_9allocatorIdEEEENS1_IS3_EEEixB8ne180100Em, symObjAddr: 0xB24, symBinAddr: 0x10000379C, symSize: 0x2C }
  - { offsetInCU: 0xD057, offset: 0xD057, size: 0x8, addend: 0x0, symName: __ZNSt3__16vectorIdNS_9allocatorIdEEEixB8ne180100Em, symObjAddr: 0xB50, symBinAddr: 0x1000037C8, symSize: 0x24 }
  - { offsetInCU: 0xD08E, offset: 0xD08E, size: 0x8, addend: 0x0, symName: __ZNK2la6matrix6MatrixclEmm, symObjAddr: 0xB74, symBinAddr: 0x1000037EC, symSize: 0xD0 }
  - { offsetInCU: 0xD0D2, offset: 0xD0D2, size: 0x8, addend: 0x0, symName: __ZNKSt3__16vectorIdNS_9allocatorIdEEEixB8ne180100Em, symObjAddr: 0xC44, symBinAddr: 0x1000038BC, symSize: 0x24 }
  - { offsetInCU: 0xD109, offset: 0xD109, size: 0x8, addend: 0x0, symName: __ZNK2la6matrix6MatrixplERKS1_, symObjAddr: 0xC68, symBinAddr: 0x1000038E0, symSize: 0x1E8 }
  - { offsetInCU: 0xD186, offset: 0xD186, size: 0x8, addend: 0x0, symName: __ZN2la6matrix6MatrixD1Ev, symObjAddr: 0xE50, symBinAddr: 0x100003AC8, symSize: 0x2C }
  - { offsetInCU: 0xD1B0, offset: 0xD1B0, size: 0x8, addend: 0x0, symName: __ZNK2la6matrix6MatrixmiERKS1_, symObjAddr: 0xE7C, symBinAddr: 0x100003AF4, symSize: 0x1E8 }
  - { offsetInCU: 0xD22D, offset: 0xD22D, size: 0x8, addend: 0x0, symName: __ZNK2la6matrix6MatrixmlERKS1_, symObjAddr: 0x1064, symBinAddr: 0x100003CDC, symSize: 0x208 }
  - { offsetInCU: 0xD2C6, offset: 0xD2C6, size: 0x8, addend: 0x0, symName: __ZNK2la6matrix6MatrixmlEd, symObjAddr: 0x126C, symBinAddr: 0x100003EE4, symSize: 0x134 }
  - { offsetInCU: 0xD343, offset: 0xD343, size: 0x8, addend: 0x0, symName: __ZNK2la6matrix6Matrix9transposeEv, symObjAddr: 0x13A0, symBinAddr: 0x100004018, symSize: 0x128 }
  - { offsetInCU: 0xD3B2, offset: 0xD3B2, size: 0x8, addend: 0x0, symName: __ZNK2la6matrix6Matrix7inverseEv, symObjAddr: 0x14C8, symBinAddr: 0x100004140, symSize: 0x6C }
  - { offsetInCU: 0xD3DA, offset: 0xD3DA, size: 0x8, addend: 0x0, symName: __ZNK2la6matrix6Matrix8adjugateEv, symObjAddr: 0x1534, symBinAddr: 0x1000041AC, symSize: 0x6C }
  - { offsetInCU: 0xD402, offset: 0xD402, size: 0x8, addend: 0x0, symName: __ZNK2la6matrix6Matrix8cofactorEv, symObjAddr: 0x15A0, symBinAddr: 0x100004218, symSize: 0x6C }
  - { offsetInCU: 0xD42A, offset: 0xD42A, size: 0x8, addend: 0x0, symName: __ZNK2la6matrix6Matrix5minorEmm, symObjAddr: 0x160C, symBinAddr: 0x100004284, symSize: 0x218 }
  - { offsetInCU: 0xD4D1, offset: 0xD4D1, size: 0x8, addend: 0x0, symName: __ZNK2la6matrix6Matrix11determinantEv, symObjAddr: 0x1824, symBinAddr: 0x10000449C, symSize: 0x68 }
  - { offsetInCU: 0xD4F9, offset: 0xD4F9, size: 0x8, addend: 0x0, symName: __ZNK2la6matrix6Matrix5traceEv, symObjAddr: 0x188C, symBinAddr: 0x100004504, symSize: 0x100 }
  - { offsetInCU: 0xD54B, offset: 0xD54B, size: 0x8, addend: 0x0, symName: __ZNK2la6matrix6MatrixeqERKS1_, symObjAddr: 0x198C, symBinAddr: 0x100004604, symSize: 0x168 }
  - { offsetInCU: 0xD5B9, offset: 0xD5B9, size: 0x8, addend: 0x0, symName: __ZNK2la6matrix6MatrixneERKS1_, symObjAddr: 0x1AF4, symBinAddr: 0x10000476C, symSize: 0x34 }
  - { offsetInCU: 0xD5EF, offset: 0xD5EF, size: 0x8, addend: 0x0, symName: __ZN2la6matrix6Matrix5zerosEmm, symObjAddr: 0x1CDC, symBinAddr: 0x100004954, symSize: 0x44 }
  - { offsetInCU: 0xD622, offset: 0xD622, size: 0x8, addend: 0x0, symName: __ZN2la6matrix6Matrix4onesEmm, symObjAddr: 0x1D20, symBinAddr: 0x100004998, symSize: 0x44 }
  - { offsetInCU: 0xD655, offset: 0xD655, size: 0x8, addend: 0x0, symName: __ZN2la6matrix6Matrix8identityEm, symObjAddr: 0x1D64, symBinAddr: 0x1000049DC, symSize: 0xC8 }
  - { offsetInCU: 0xD6A5, offset: 0xD6A5, size: 0x8, addend: 0x0, symName: __ZNKSt3__111__wrap_iterIPKNS_6vectorIdNS_9allocatorIdEEEEE4baseB8ne180100Ev, symObjAddr: 0x1E74, symBinAddr: 0x100004AEC, symSize: 0x18 }
  - { offsetInCU: 0xD6CB, offset: 0xD6CB, size: 0x8, addend: 0x0, symName: __ZNSt16invalid_argumentC2B8ne180100EPKc, symObjAddr: 0x1E8C, symBinAddr: 0x100004B04, symSize: 0x4C }
  - { offsetInCU: 0xD703, offset: 0xD703, size: 0x8, addend: 0x0, symName: __ZNSt12out_of_rangeC2B8ne180100EPKc, symObjAddr: 0x1ED8, symBinAddr: 0x100004B50, symSize: 0x4C }
  - { offsetInCU: 0xD73B, offset: 0xD73B, size: 0x8, addend: 0x0, symName: __ZN2la6matrix6MatrixD2Ev, symObjAddr: 0x1F24, symBinAddr: 0x100004B9C, symSize: 0x30 }
  - { offsetInCU: 0xD765, offset: 0xD765, size: 0x8, addend: 0x0, symName: __ZNSt3__16vectorIdNS_9allocatorIdEEEC2Em, symObjAddr: 0x1F54, symBinAddr: 0x100004BCC, symSize: 0xD4 }
  - { offsetInCU: 0xD7BF, offset: 0xD7BF, size: 0x8, addend: 0x0, symName: __ZNSt3__117__compressed_pairIPdNS_9allocatorIdEEEC1B8ne180100IDnNS_18__default_init_tagEEEOT_OT0_, symObjAddr: 0x2028, symBinAddr: 0x100004CA0, symSize: 0x3C }
  - { offsetInCU: 0xD817, offset: 0xD817, size: 0x8, addend: 0x0, symName: __ZNSt3__16vectorIdNS_9allocatorIdEEE16__destroy_vectorC1B8ne180100ERS3_, symObjAddr: 0x20A4, symBinAddr: 0x100004D1C, symSize: 0x34 }
  - { offsetInCU: 0xD850, offset: 0xD850, size: 0x8, addend: 0x0, symName: __ZNSt3__16vectorIdNS_9allocatorIdEEE11__vallocateB8ne180100Em, symObjAddr: 0x20D8, symBinAddr: 0x100004D50, symSize: 0xAC }
  - { offsetInCU: 0xD894, offset: 0xD894, size: 0x8, addend: 0x0, symName: __ZNSt3__16vectorIdNS_9allocatorIdEEE18__construct_at_endEm, symObjAddr: 0x2184, symBinAddr: 0x100004DFC, symSize: 0xC8 }
  - { offsetInCU: 0xD906, offset: 0xD906, size: 0x8, addend: 0x0, symName: __ZNSt3__128__exception_guard_exceptionsINS_6vectorIdNS_9allocatorIdEEE16__destroy_vectorEE10__completeB8ne180100Ev, symObjAddr: 0x224C, symBinAddr: 0x100004EC4, symSize: 0x1C }
  - { offsetInCU: 0xD92C, offset: 0xD92C, size: 0x8, addend: 0x0, symName: __ZNSt3__128__exception_guard_exceptionsINS_6vectorIdNS_9allocatorIdEEE16__destroy_vectorEED1B8ne180100Ev, symObjAddr: 0x2268, symBinAddr: 0x100004EE0, symSize: 0x2C }
  - { offsetInCU: 0xD956, offset: 0xD956, size: 0x8, addend: 0x0, symName: __ZNSt3__117__compressed_pairIPdNS_9allocatorIdEEEC2B8ne180100IDnNS_18__default_init_tagEEEOT_OT0_, symObjAddr: 0x2294, symBinAddr: 0x100004F0C, symSize: 0x40 }
  - { offsetInCU: 0xD9AE, offset: 0xD9AE, size: 0x8, addend: 0x0, symName: __ZNSt3__122__compressed_pair_elemIPdLi0ELb0EEC2B8ne180100IDnvEEOT_, symObjAddr: 0x22D4, symBinAddr: 0x100004F4C, symSize: 0x1C }
  - { offsetInCU: 0xD9F0, offset: 0xD9F0, size: 0x8, addend: 0x0, symName: __ZNSt3__122__compressed_pair_elemINS_9allocatorIdEELi1ELb1EEC2B8ne180100ENS_18__default_init_tagE, symObjAddr: 0x22F0, symBinAddr: 0x100004F68, symSize: 0x2C }
  - { offsetInCU: 0xDA24, offset: 0xDA24, size: 0x8, addend: 0x0, symName: __ZNSt3__19allocatorIdEC2B8ne180100Ev, symObjAddr: 0x231C, symBinAddr: 0x100004F94, symSize: 0x2C }
  - { offsetInCU: 0xDA4E, offset: 0xDA4E, size: 0x8, addend: 0x0, symName: __ZNSt3__116__non_trivial_ifILb1ENS_9allocatorIdEEEC2B8ne180100Ev, symObjAddr: 0x2348, symBinAddr: 0x100004FC0, symSize: 0x14 }
  - { offsetInCU: 0xDA78, offset: 0xDA78, size: 0x8, addend: 0x0, symName: __ZNSt3__128__exception_guard_exceptionsINS_6vectorIdNS_9allocatorIdEEE16__destroy_vectorEEC1B8ne180100ES5_, symObjAddr: 0x235C, symBinAddr: 0x100004FD4, symSize: 0x34 }
  - { offsetInCU: 0xDAB0, offset: 0xDAB0, size: 0x8, addend: 0x0, symName: __ZNSt3__128__exception_guard_exceptionsINS_6vectorIdNS_9allocatorIdEEE16__destroy_vectorEEC2B8ne180100ES5_, symObjAddr: 0x2390, symBinAddr: 0x100005008, symSize: 0x24 }
  - { offsetInCU: 0xDAE8, offset: 0xDAE8, size: 0x8, addend: 0x0, symName: __ZNSt3__16vectorIdNS_9allocatorIdEEE16__destroy_vectorC2B8ne180100ERS3_, symObjAddr: 0x23B4, symBinAddr: 0x10000502C, symSize: 0x20 }
  - { offsetInCU: 0xDB21, offset: 0xDB21, size: 0x8, addend: 0x0, symName: __ZNKSt3__16vectorIdNS_9allocatorIdEEE8max_sizeEv, symObjAddr: 0x23D4, symBinAddr: 0x10000504C, symSize: 0x60 }
  - { offsetInCU: 0xDB49, offset: 0xDB49, size: 0x8, addend: 0x0, symName: __ZNKSt3__16vectorIdNS_9allocatorIdEEE20__throw_length_errorB8ne180100Ev, symObjAddr: 0x2434, symBinAddr: 0x1000050AC, symSize: 0x1C }
  - { offsetInCU: 0xDB6F, offset: 0xDB6F, size: 0x8, addend: 0x0, symName: __ZNSt3__16vectorIdNS_9allocatorIdEEE7__allocB8ne180100Ev, symObjAddr: 0x2490, symBinAddr: 0x100005108, symSize: 0x28 }
  - { offsetInCU: 0xDB95, offset: 0xDB95, size: 0x8, addend: 0x0, symName: __ZNSt3__16vectorIdNS_9allocatorIdEEE9__end_capB8ne180100Ev, symObjAddr: 0x24B8, symBinAddr: 0x100005130, symSize: 0x28 }
  - { offsetInCU: 0xDBBB, offset: 0xDBBB, size: 0x8, addend: 0x0, symName: __ZNKSt3__16vectorIdNS_9allocatorIdEEE14__annotate_newB8ne180100Em, symObjAddr: 0x24E0, symBinAddr: 0x100005158, symSize: 0x14 }
  - { offsetInCU: 0xDBFA, offset: 0xDBFA, size: 0x8, addend: 0x0, symName: __ZNSt3__116allocator_traitsINS_9allocatorIdEEE8max_sizeB8ne180100IS2_vEEmRKS2_, symObjAddr: 0x2520, symBinAddr: 0x100005198, symSize: 0x24 }
  - { offsetInCU: 0xDC28, offset: 0xDC28, size: 0x8, addend: 0x0, symName: __ZNKSt3__16vectorIdNS_9allocatorIdEEE7__allocB8ne180100Ev, symObjAddr: 0x2544, symBinAddr: 0x1000051BC, symSize: 0x28 }
  - { offsetInCU: 0xDC4E, offset: 0xDC4E, size: 0x8, addend: 0x0, symName: __ZNSt3__114numeric_limitsIlE3maxB8ne180100Ev, symObjAddr: 0x256C, symBinAddr: 0x1000051E4, symSize: 0x14 }
  - { offsetInCU: 0xDC76, offset: 0xDC76, size: 0x8, addend: 0x0, symName: __ZNKSt3__16__lessIvvEclB8ne180100ImmEEbRKT_RKT0_, symObjAddr: 0x25E0, symBinAddr: 0x100005258, symSize: 0x34 }
  - { offsetInCU: 0xDCCA, offset: 0xDCCA, size: 0x8, addend: 0x0, symName: __ZNKSt3__19allocatorIdE8max_sizeB8ne180100Ev, symObjAddr: 0x2614, symBinAddr: 0x10000528C, symSize: 0x14 }
  - { offsetInCU: 0xDCF0, offset: 0xDCF0, size: 0x8, addend: 0x0, symName: __ZNKSt3__117__compressed_pairIPdNS_9allocatorIdEEE6secondB8ne180100Ev, symObjAddr: 0x2628, symBinAddr: 0x1000052A0, symSize: 0x24 }
  - { offsetInCU: 0xDD16, offset: 0xDD16, size: 0x8, addend: 0x0, symName: __ZNKSt3__122__compressed_pair_elemINS_9allocatorIdEELi1ELb1EE5__getB8ne180100Ev, symObjAddr: 0x264C, symBinAddr: 0x1000052C4, symSize: 0x14 }
  - { offsetInCU: 0xDD3C, offset: 0xDD3C, size: 0x8, addend: 0x0, symName: __ZNSt3__123__libcpp_numeric_limitsIlLb1EE3maxB8ne180100Ev, symObjAddr: 0x2660, symBinAddr: 0x1000052D8, symSize: 0x8 }
  - { offsetInCU: 0xDD50, offset: 0xDD50, size: 0x8, addend: 0x0, symName: __ZNSt12length_errorC1B8ne180100EPKc, symObjAddr: 0x26CC, symBinAddr: 0x100005344, symSize: 0x34 }
  - { offsetInCU: 0xDD88, offset: 0xDD88, size: 0x8, addend: 0x0, symName: __ZNSt12length_errorC2B8ne180100EPKc, symObjAddr: 0x2700, symBinAddr: 0x100005378, symSize: 0x4C }
  - { offsetInCU: 0xDDC0, offset: 0xDDC0, size: 0x8, addend: 0x0, symName: __ZNSt3__19allocatorIdE8allocateB8ne180100Em, symObjAddr: 0x274C, symBinAddr: 0x1000053C4, symSize: 0x58 }
  - { offsetInCU: 0xDDF4, offset: 0xDDF4, size: 0x8, addend: 0x0, symName: __ZNSt3__117__compressed_pairIPdNS_9allocatorIdEEE6secondB8ne180100Ev, symObjAddr: 0x28A8, symBinAddr: 0x100005520, symSize: 0x24 }
  - { offsetInCU: 0xDE1A, offset: 0xDE1A, size: 0x8, addend: 0x0, symName: __ZNSt3__122__compressed_pair_elemINS_9allocatorIdEELi1ELb1EE5__getB8ne180100Ev, symObjAddr: 0x28CC, symBinAddr: 0x100005544, symSize: 0x14 }
  - { offsetInCU: 0xDE40, offset: 0xDE40, size: 0x8, addend: 0x0, symName: __ZNSt3__117__compressed_pairIPdNS_9allocatorIdEEE5firstB8ne180100Ev, symObjAddr: 0x28E0, symBinAddr: 0x100005558, symSize: 0x24 }
  - { offsetInCU: 0xDE66, offset: 0xDE66, size: 0x8, addend: 0x0, symName: __ZNSt3__122__compressed_pair_elemIPdLi0ELb0EE5__getB8ne180100Ev, symObjAddr: 0x2904, symBinAddr: 0x10000557C, symSize: 0x14 }
  - { offsetInCU: 0xDEA5, offset: 0xDEA5, size: 0x8, addend: 0x0, symName: __ZNSt3__16vectorIdNS_9allocatorIdEEE21_ConstructTransactionC1B8ne180100ERS3_m, symObjAddr: 0x2918, symBinAddr: 0x100005590, symSize: 0x3C }
  - { offsetInCU: 0xDEED, offset: 0xDEED, size: 0x8, addend: 0x0, symName: __ZNSt3__116allocator_traitsINS_9allocatorIdEEE9constructB8ne180100IdJEvEEvRS2_PT_DpOT0_, symObjAddr: 0x2954, symBinAddr: 0x1000055CC, symSize: 0x2C }
  - { offsetInCU: 0xDF2F, offset: 0xDF2F, size: 0x8, addend: 0x0, symName: __ZNSt3__16vectorIdNS_9allocatorIdEEE21_ConstructTransactionD1B8ne180100Ev, symObjAddr: 0x2994, symBinAddr: 0x10000560C, symSize: 0x2C }
  - { offsetInCU: 0xDF59, offset: 0xDF59, size: 0x8, addend: 0x0, symName: __ZNSt3__16vectorIdNS_9allocatorIdEEE21_ConstructTransactionC2B8ne180100ERS3_m, symObjAddr: 0x29C0, symBinAddr: 0x100005638, symSize: 0x44 }
  - { offsetInCU: 0xDFA1, offset: 0xDFA1, size: 0x8, addend: 0x0, symName: __ZNSt3__19allocatorIdE9constructB8ne180100IdJEEEvPT_DpOT0_, symObjAddr: 0x2A04, symBinAddr: 0x10000567C, symSize: 0x20 }
  - { offsetInCU: 0xDFE3, offset: 0xDFE3, size: 0x8, addend: 0x0, symName: __ZNSt3__16vectorIdNS_9allocatorIdEEE21_ConstructTransactionD2B8ne180100Ev, symObjAddr: 0x2A24, symBinAddr: 0x10000569C, symSize: 0x20 }
  - { offsetInCU: 0xE00D, offset: 0xE00D, size: 0x8, addend: 0x0, symName: __ZNSt3__128__exception_guard_exceptionsINS_6vectorIdNS_9allocatorIdEEE16__destroy_vectorEED2B8ne180100Ev, symObjAddr: 0x2A44, symBinAddr: 0x1000056BC, symSize: 0x50 }
  - { offsetInCU: 0xE037, offset: 0xE037, size: 0x8, addend: 0x0, symName: __ZNSt3__16vectorIdNS_9allocatorIdEEE16__destroy_vectorclB8ne180100Ev, symObjAddr: 0x2A94, symBinAddr: 0x10000570C, symSize: 0x90 }
  - { offsetInCU: 0xE05D, offset: 0xE05D, size: 0x8, addend: 0x0, symName: __ZNSt3__16vectorIdNS_9allocatorIdEEE7__clearB8ne180100Ev, symObjAddr: 0x2B24, symBinAddr: 0x10000579C, symSize: 0x28 }
  - { offsetInCU: 0xE083, offset: 0xE083, size: 0x8, addend: 0x0, symName: __ZNKSt3__16vectorIdNS_9allocatorIdEEE17__annotate_deleteB8ne180100Ev, symObjAddr: 0x2B4C, symBinAddr: 0x1000057C4, symSize: 0x10 }
  - { offsetInCU: 0xE0A9, offset: 0xE0A9, size: 0x8, addend: 0x0, symName: __ZNSt3__116allocator_traitsINS_9allocatorIdEEE10deallocateB8ne180100ERS2_Pdm, symObjAddr: 0x2B5C, symBinAddr: 0x1000057D4, symSize: 0x34 }
  - { offsetInCU: 0xE0EB, offset: 0xE0EB, size: 0x8, addend: 0x0, symName: __ZNKSt3__16vectorIdNS_9allocatorIdEEE8capacityB8ne180100Ev, symObjAddr: 0x2B90, symBinAddr: 0x100005808, symSize: 0x40 }
  - { offsetInCU: 0xE111, offset: 0xE111, size: 0x8, addend: 0x0, symName: __ZNSt3__16vectorIdNS_9allocatorIdEEE22__base_destruct_at_endB8ne180100EPd, symObjAddr: 0x2BD0, symBinAddr: 0x100005848, symSize: 0x8C }
  - { offsetInCU: 0xE155, offset: 0xE155, size: 0x8, addend: 0x0, symName: __ZNSt3__116allocator_traitsINS_9allocatorIdEEE7destroyB8ne180100IdvEEvRS2_PT_, symObjAddr: 0x2C5C, symBinAddr: 0x1000058D4, symSize: 0x2C }
  - { offsetInCU: 0xE192, offset: 0xE192, size: 0x8, addend: 0x0, symName: __ZNSt3__19allocatorIdE7destroyB8ne180100EPd, symObjAddr: 0x2C88, symBinAddr: 0x100005900, symSize: 0x14 }
  - { offsetInCU: 0xE1C6, offset: 0xE1C6, size: 0x8, addend: 0x0, symName: __ZNSt3__19allocatorIdE10deallocateB8ne180100EPdm, symObjAddr: 0x2C9C, symBinAddr: 0x100005914, symSize: 0x40 }
  - { offsetInCU: 0xE208, offset: 0xE208, size: 0x8, addend: 0x0, symName: __ZNKSt3__16vectorIdNS_9allocatorIdEEE9__end_capB8ne180100Ev, symObjAddr: 0x2DE4, symBinAddr: 0x100005A5C, symSize: 0x28 }
  - { offsetInCU: 0xE22E, offset: 0xE22E, size: 0x8, addend: 0x0, symName: __ZNKSt3__117__compressed_pairIPdNS_9allocatorIdEEE5firstB8ne180100Ev, symObjAddr: 0x2E0C, symBinAddr: 0x100005A84, symSize: 0x24 }
  - { offsetInCU: 0xE254, offset: 0xE254, size: 0x8, addend: 0x0, symName: __ZNKSt3__122__compressed_pair_elemIPdLi0ELb0EE5__getB8ne180100Ev, symObjAddr: 0x2E30, symBinAddr: 0x100005AA8, symSize: 0x14 }
  - { offsetInCU: 0xE27A, offset: 0xE27A, size: 0x8, addend: 0x0, symName: __ZNSt3__16vectorIdNS_9allocatorIdEEED2B8ne180100Ev, symObjAddr: 0x2E44, symBinAddr: 0x100005ABC, symSize: 0x40 }
  - { offsetInCU: 0xE2A4, offset: 0xE2A4, size: 0x8, addend: 0x0, symName: __ZNSt3__16vectorINS0_IdNS_9allocatorIdEEEENS1_IS3_EEEC2EmRKS3_, symObjAddr: 0x2E84, symBinAddr: 0x100005AFC, symSize: 0xDC }
  - { offsetInCU: 0xE303, offset: 0xE303, size: 0x8, addend: 0x0, symName: __ZNSt3__117__compressed_pairIPNS_6vectorIdNS_9allocatorIdEEEENS2_IS4_EEEC1B8ne180100IDnNS_18__default_init_tagEEEOT_OT0_, symObjAddr: 0x2F60, symBinAddr: 0x100005BD8, symSize: 0x3C }
  - { offsetInCU: 0xE35B, offset: 0xE35B, size: 0x8, addend: 0x0, symName: __ZNSt3__16vectorINS0_IdNS_9allocatorIdEEEENS1_IS3_EEE16__destroy_vectorC1B8ne180100ERS5_, symObjAddr: 0x2FDC, symBinAddr: 0x100005C54, symSize: 0x34 }
  - { offsetInCU: 0xE394, offset: 0xE394, size: 0x8, addend: 0x0, symName: __ZNSt3__16vectorINS0_IdNS_9allocatorIdEEEENS1_IS3_EEE11__vallocateB8ne180100Em, symObjAddr: 0x3010, symBinAddr: 0x100005C88, symSize: 0xB4 }
  - { offsetInCU: 0xE3D8, offset: 0xE3D8, size: 0x8, addend: 0x0, symName: __ZNSt3__16vectorINS0_IdNS_9allocatorIdEEEENS1_IS3_EEE18__construct_at_endEmRKS3_, symObjAddr: 0x30C4, symBinAddr: 0x100005D3C, symSize: 0xD0 }
  - { offsetInCU: 0xE459, offset: 0xE459, size: 0x8, addend: 0x0, symName: __ZNSt3__128__exception_guard_exceptionsINS_6vectorINS1_IdNS_9allocatorIdEEEENS2_IS4_EEE16__destroy_vectorEE10__completeB8ne180100Ev, symObjAddr: 0x3194, symBinAddr: 0x100005E0C, symSize: 0x1C }
  - { offsetInCU: 0xE47F, offset: 0xE47F, size: 0x8, addend: 0x0, symName: __ZNSt3__128__exception_guard_exceptionsINS_6vectorINS1_IdNS_9allocatorIdEEEENS2_IS4_EEE16__destroy_vectorEED1B8ne180100Ev, symObjAddr: 0x31B0, symBinAddr: 0x100005E28, symSize: 0x2C }
  - { offsetInCU: 0xE4A9, offset: 0xE4A9, size: 0x8, addend: 0x0, symName: __ZNSt3__117__compressed_pairIPNS_6vectorIdNS_9allocatorIdEEEENS2_IS4_EEEC2B8ne180100IDnNS_18__default_init_tagEEEOT_OT0_, symObjAddr: 0x31DC, symBinAddr: 0x100005E54, symSize: 0x40 }
  - { offsetInCU: 0xE501, offset: 0xE501, size: 0x8, addend: 0x0, symName: __ZNSt3__122__compressed_pair_elemIPNS_6vectorIdNS_9allocatorIdEEEELi0ELb0EEC2B8ne180100IDnvEEOT_, symObjAddr: 0x321C, symBinAddr: 0x100005E94, symSize: 0x1C }
  - { offsetInCU: 0xE543, offset: 0xE543, size: 0x8, addend: 0x0, symName: __ZNSt3__122__compressed_pair_elemINS_9allocatorINS_6vectorIdNS1_IdEEEEEELi1ELb1EEC2B8ne180100ENS_18__default_init_tagE, symObjAddr: 0x3238, symBinAddr: 0x100005EB0, symSize: 0x2C }
  - { offsetInCU: 0xE577, offset: 0xE577, size: 0x8, addend: 0x0, symName: __ZNSt3__19allocatorINS_6vectorIdNS0_IdEEEEEC2B8ne180100Ev, symObjAddr: 0x3264, symBinAddr: 0x100005EDC, symSize: 0x2C }
  - { offsetInCU: 0xE5A1, offset: 0xE5A1, size: 0x8, addend: 0x0, symName: __ZNSt3__116__non_trivial_ifILb1ENS_9allocatorINS_6vectorIdNS1_IdEEEEEEEC2B8ne180100Ev, symObjAddr: 0x3290, symBinAddr: 0x100005F08, symSize: 0x14 }
  - { offsetInCU: 0xE5CB, offset: 0xE5CB, size: 0x8, addend: 0x0, symName: __ZNSt3__128__exception_guard_exceptionsINS_6vectorINS1_IdNS_9allocatorIdEEEENS2_IS4_EEE16__destroy_vectorEEC1B8ne180100ES7_, symObjAddr: 0x32A4, symBinAddr: 0x100005F1C, symSize: 0x34 }
  - { offsetInCU: 0xE603, offset: 0xE603, size: 0x8, addend: 0x0, symName: __ZNSt3__128__exception_guard_exceptionsINS_6vectorINS1_IdNS_9allocatorIdEEEENS2_IS4_EEE16__destroy_vectorEEC2B8ne180100ES7_, symObjAddr: 0x32D8, symBinAddr: 0x100005F50, symSize: 0x24 }
  - { offsetInCU: 0xE63B, offset: 0xE63B, size: 0x8, addend: 0x0, symName: __ZNSt3__16vectorINS0_IdNS_9allocatorIdEEEENS1_IS3_EEE16__destroy_vectorC2B8ne180100ERS5_, symObjAddr: 0x32FC, symBinAddr: 0x100005F74, symSize: 0x20 }
  - { offsetInCU: 0xE674, offset: 0xE674, size: 0x8, addend: 0x0, symName: __ZNKSt3__16vectorINS0_IdNS_9allocatorIdEEEENS1_IS3_EEE8max_sizeEv, symObjAddr: 0x331C, symBinAddr: 0x100005F94, symSize: 0x60 }
  - { offsetInCU: 0xE69C, offset: 0xE69C, size: 0x8, addend: 0x0, symName: __ZNKSt3__16vectorINS0_IdNS_9allocatorIdEEEENS1_IS3_EEE20__throw_length_errorB8ne180100Ev, symObjAddr: 0x337C, symBinAddr: 0x100005FF4, symSize: 0x1C }
  - { offsetInCU: 0xE6C2, offset: 0xE6C2, size: 0x8, addend: 0x0, symName: __ZNSt3__16vectorINS0_IdNS_9allocatorIdEEEENS1_IS3_EEE7__allocB8ne180100Ev, symObjAddr: 0x33D8, symBinAddr: 0x100006050, symSize: 0x28 }
  - { offsetInCU: 0xE6E8, offset: 0xE6E8, size: 0x8, addend: 0x0, symName: __ZNSt3__16vectorINS0_IdNS_9allocatorIdEEEENS1_IS3_EEE9__end_capB8ne180100Ev, symObjAddr: 0x3400, symBinAddr: 0x100006078, symSize: 0x28 }
  - { offsetInCU: 0xE70E, offset: 0xE70E, size: 0x8, addend: 0x0, symName: __ZNKSt3__16vectorINS0_IdNS_9allocatorIdEEEENS1_IS3_EEE14__annotate_newB8ne180100Em, symObjAddr: 0x3428, symBinAddr: 0x1000060A0, symSize: 0x14 }
  - { offsetInCU: 0xE74D, offset: 0xE74D, size: 0x8, addend: 0x0, symName: __ZNSt3__116allocator_traitsINS_9allocatorINS_6vectorIdNS1_IdEEEEEEE8max_sizeB8ne180100IS5_vEEmRKS5_, symObjAddr: 0x343C, symBinAddr: 0x1000060B4, symSize: 0x24 }
  - { offsetInCU: 0xE77B, offset: 0xE77B, size: 0x8, addend: 0x0, symName: __ZNKSt3__16vectorINS0_IdNS_9allocatorIdEEEENS1_IS3_EEE7__allocB8ne180100Ev, symObjAddr: 0x3460, symBinAddr: 0x1000060D8, symSize: 0x28 }
  - { offsetInCU: 0xE7A1, offset: 0xE7A1, size: 0x8, addend: 0x0, symName: __ZNKSt3__19allocatorINS_6vectorIdNS0_IdEEEEE8max_sizeB8ne180100Ev, symObjAddr: 0x3488, symBinAddr: 0x100006100, symSize: 0x18 }
  - { offsetInCU: 0xE7C7, offset: 0xE7C7, size: 0x8, addend: 0x0, symName: __ZNKSt3__117__compressed_pairIPNS_6vectorIdNS_9allocatorIdEEEENS2_IS4_EEE6secondB8ne180100Ev, symObjAddr: 0x34A0, symBinAddr: 0x100006118, symSize: 0x24 }
  - { offsetInCU: 0xE7ED, offset: 0xE7ED, size: 0x8, addend: 0x0, symName: __ZNKSt3__122__compressed_pair_elemINS_9allocatorINS_6vectorIdNS1_IdEEEEEELi1ELb1EE5__getB8ne180100Ev, symObjAddr: 0x34C4, symBinAddr: 0x10000613C, symSize: 0x14 }
  - { offsetInCU: 0xE813, offset: 0xE813, size: 0x8, addend: 0x0, symName: __ZNSt3__19allocatorINS_6vectorIdNS0_IdEEEEE8allocateB8ne180100Em, symObjAddr: 0x34D8, symBinAddr: 0x100006150, symSize: 0x5C }
  - { offsetInCU: 0xE847, offset: 0xE847, size: 0x8, addend: 0x0, symName: __ZNSt3__117__compressed_pairIPNS_6vectorIdNS_9allocatorIdEEEENS2_IS4_EEE6secondB8ne180100Ev, symObjAddr: 0x3534, symBinAddr: 0x1000061AC, symSize: 0x24 }
  - { offsetInCU: 0xE86D, offset: 0xE86D, size: 0x8, addend: 0x0, symName: __ZNSt3__122__compressed_pair_elemINS_9allocatorINS_6vectorIdNS1_IdEEEEEELi1ELb1EE5__getB8ne180100Ev, symObjAddr: 0x3558, symBinAddr: 0x1000061D0, symSize: 0x14 }
  - { offsetInCU: 0xE893, offset: 0xE893, size: 0x8, addend: 0x0, symName: __ZNSt3__117__compressed_pairIPNS_6vectorIdNS_9allocatorIdEEEENS2_IS4_EEE5firstB8ne180100Ev, symObjAddr: 0x356C, symBinAddr: 0x1000061E4, symSize: 0x24 }
  - { offsetInCU: 0xE8B9, offset: 0xE8B9, size: 0x8, addend: 0x0, symName: __ZNSt3__122__compressed_pair_elemIPNS_6vectorIdNS_9allocatorIdEEEELi0ELb0EE5__getB8ne180100Ev, symObjAddr: 0x3590, symBinAddr: 0x100006208, symSize: 0x14 }
  - { offsetInCU: 0xE8F8, offset: 0xE8F8, size: 0x8, addend: 0x0, symName: __ZNSt3__16vectorINS0_IdNS_9allocatorIdEEEENS1_IS3_EEE21_ConstructTransactionC1B8ne180100ERS5_m, symObjAddr: 0x35A4, symBinAddr: 0x10000621C, symSize: 0x3C }
  - { offsetInCU: 0xE940, offset: 0xE940, size: 0x8, addend: 0x0, symName: __ZNSt3__116allocator_traitsINS_9allocatorINS_6vectorIdNS1_IdEEEEEEE9constructB8ne180100IS4_JRKS4_EvEEvRS5_PT_DpOT0_, symObjAddr: 0x35E0, symBinAddr: 0x100006258, symSize: 0x34 }
  - { offsetInCU: 0xE997, offset: 0xE997, size: 0x8, addend: 0x0, symName: __ZNSt3__16vectorINS0_IdNS_9allocatorIdEEEENS1_IS3_EEE21_ConstructTransactionD1B8ne180100Ev, symObjAddr: 0x3628, symBinAddr: 0x1000062A0, symSize: 0x2C }
  - { offsetInCU: 0xE9C1, offset: 0xE9C1, size: 0x8, addend: 0x0, symName: __ZNSt3__16vectorINS0_IdNS_9allocatorIdEEEENS1_IS3_EEE21_ConstructTransactionC2B8ne180100ERS5_m, symObjAddr: 0x3654, symBinAddr: 0x1000062CC, symSize: 0x4C }
  - { offsetInCU: 0xEA09, offset: 0xEA09, size: 0x8, addend: 0x0, symName: __ZNSt3__19allocatorINS_6vectorIdNS0_IdEEEEE9constructB8ne180100IS3_JRKS3_EEEvPT_DpOT0_, symObjAddr: 0x36A0, symBinAddr: 0x100006318, symSize: 0x30 }
  - { offsetInCU: 0xEA5F, offset: 0xEA5F, size: 0x8, addend: 0x0, symName: __ZNSt3__16vectorIdNS_9allocatorIdEEEC1ERKS3_, symObjAddr: 0x36D0, symBinAddr: 0x100006348, symSize: 0x34 }
  - { offsetInCU: 0xEA9A, offset: 0xEA9A, size: 0x8, addend: 0x0, symName: __ZNSt3__16vectorIdNS_9allocatorIdEEEC2ERKS3_, symObjAddr: 0x3704, symBinAddr: 0x10000637C, symSize: 0x94 }
  - { offsetInCU: 0xEAD5, offset: 0xEAD5, size: 0x8, addend: 0x0, symName: __ZNSt3__116allocator_traitsINS_9allocatorIdEEE37select_on_container_copy_constructionB8ne180100IS2_vvEES2_RKS2_, symObjAddr: 0x3798, symBinAddr: 0x100006410, symSize: 0x10 }
  - { offsetInCU: 0xEB09, offset: 0xEB09, size: 0x8, addend: 0x0, symName: __ZNSt3__117__compressed_pairIPdNS_9allocatorIdEEEC1B8ne180100IDnS3_EEOT_OT0_, symObjAddr: 0x37A8, symBinAddr: 0x100006420, symSize: 0x3C }
  - { offsetInCU: 0xEB61, offset: 0xEB61, size: 0x8, addend: 0x0, symName: __ZNSt3__16vectorIdNS_9allocatorIdEEE16__init_with_sizeB8ne180100IPdS5_EEvT_T0_m, symObjAddr: 0x37E4, symBinAddr: 0x10000645C, symSize: 0xB8 }
  - { offsetInCU: 0xEBD5, offset: 0xEBD5, size: 0x8, addend: 0x0, symName: __ZNSt3__117__compressed_pairIPdNS_9allocatorIdEEEC2B8ne180100IDnS3_EEOT_OT0_, symObjAddr: 0x389C, symBinAddr: 0x100006514, symSize: 0x44 }
  - { offsetInCU: 0xEC2D, offset: 0xEC2D, size: 0x8, addend: 0x0, symName: __ZNSt3__122__compressed_pair_elemINS_9allocatorIdEELi1ELb1EEC2B8ne180100IS2_vEEOT_, symObjAddr: 0x38E0, symBinAddr: 0x100006558, symSize: 0x18 }
  - { offsetInCU: 0xEC6F, offset: 0xEC6F, size: 0x8, addend: 0x0, symName: __ZNSt3__16vectorIdNS_9allocatorIdEEE18__construct_at_endIPdS5_EEvT_T0_m, symObjAddr: 0x38F8, symBinAddr: 0x100006570, symSize: 0x8C }
  - { offsetInCU: 0xED03, offset: 0xED03, size: 0x8, addend: 0x0, symName: __ZNSt3__14pairIPdS1_EC1B8ne180100IS1_S1_Li0EEEOT_OT0_, symObjAddr: 0x3B34, symBinAddr: 0x1000067AC, symSize: 0x3C }
  - { offsetInCU: 0xED61, offset: 0xED61, size: 0x8, addend: 0x0, symName: __ZNSt3__14pairIPdS1_EC2B8ne180100IS1_S1_Li0EEEOT_OT0_, symObjAddr: 0x3B70, symBinAddr: 0x1000067E8, symSize: 0x34 }
  - { offsetInCU: 0xEDC9, offset: 0xEDC9, size: 0x8, addend: 0x0, symName: __ZNKSt3__114__copy_trivialclB8ne180100IddLi0EEENS_4pairIPT_PT0_EES4_S4_S6_, symObjAddr: 0x3D20, symBinAddr: 0x100006998, symSize: 0x48 }
  - { offsetInCU: 0xEE31, offset: 0xEE31, size: 0x8, addend: 0x0, symName: __ZNSt3__14pairIPdS1_EC1B8ne180100IRS1_S1_Li0EEEOT_OT0_, symObjAddr: 0x3EB0, symBinAddr: 0x100006B28, symSize: 0x3C }
  - { offsetInCU: 0xEE8F, offset: 0xEE8F, size: 0x8, addend: 0x0, symName: __ZNSt3__14pairIPdS1_EC2B8ne180100IRS1_S1_Li0EEEOT_OT0_, symObjAddr: 0x3EEC, symBinAddr: 0x100006B64, symSize: 0x34 }
  - { offsetInCU: 0xEEED, offset: 0xEEED, size: 0x8, addend: 0x0, symName: __ZNSt3__118__unwrap_iter_implIPdLb1EE8__unwrapB8ne180100ES1_, symObjAddr: 0x3F20, symBinAddr: 0x100006B98, symSize: 0x24 }
  - { offsetInCU: 0xEF10, offset: 0xEF10, size: 0x8, addend: 0x0, symName: __ZNSt3__118__unwrap_iter_implIPdLb1EE8__rewrapB8ne180100ES1_S1_, symObjAddr: 0x3F44, symBinAddr: 0x100006BBC, symSize: 0x50 }
  - { offsetInCU: 0xEF41, offset: 0xEF41, size: 0x8, addend: 0x0, symName: __ZNSt3__16vectorINS0_IdNS_9allocatorIdEEEENS1_IS3_EEE21_ConstructTransactionD2B8ne180100Ev, symObjAddr: 0x3F94, symBinAddr: 0x100006C0C, symSize: 0x20 }
  - { offsetInCU: 0xEF6B, offset: 0xEF6B, size: 0x8, addend: 0x0, symName: __ZNSt3__128__exception_guard_exceptionsINS_6vectorINS1_IdNS_9allocatorIdEEEENS2_IS4_EEE16__destroy_vectorEED2B8ne180100Ev, symObjAddr: 0x3FB4, symBinAddr: 0x100006C2C, symSize: 0x50 }
  - { offsetInCU: 0xEF95, offset: 0xEF95, size: 0x8, addend: 0x0, symName: __ZNSt3__16vectorINS0_IdNS_9allocatorIdEEEENS1_IS3_EEE16__destroy_vectorclB8ne180100Ev, symObjAddr: 0x4004, symBinAddr: 0x100006C7C, symSize: 0x90 }
  - { offsetInCU: 0xEFBB, offset: 0xEFBB, size: 0x8, addend: 0x0, symName: __ZNSt3__16vectorINS0_IdNS_9allocatorIdEEEENS1_IS3_EEE7__clearB8ne180100Ev, symObjAddr: 0x4094, symBinAddr: 0x100006D0C, symSize: 0x28 }
  - { offsetInCU: 0xEFE1, offset: 0xEFE1, size: 0x8, addend: 0x0, symName: __ZNKSt3__16vectorINS0_IdNS_9allocatorIdEEEENS1_IS3_EEE17__annotate_deleteB8ne180100Ev, symObjAddr: 0x40BC, symBinAddr: 0x100006D34, symSize: 0x10 }
  - { offsetInCU: 0xF007, offset: 0xF007, size: 0x8, addend: 0x0, symName: __ZNSt3__116allocator_traitsINS_9allocatorINS_6vectorIdNS1_IdEEEEEEE10deallocateB8ne180100ERS5_PS4_m, symObjAddr: 0x40CC, symBinAddr: 0x100006D44, symSize: 0x34 }
  - { offsetInCU: 0xF049, offset: 0xF049, size: 0x8, addend: 0x0, symName: __ZNKSt3__16vectorINS0_IdNS_9allocatorIdEEEENS1_IS3_EEE8capacityB8ne180100Ev, symObjAddr: 0x4100, symBinAddr: 0x100006D78, symSize: 0x40 }
  - { offsetInCU: 0xF06F, offset: 0xF06F, size: 0x8, addend: 0x0, symName: __ZNSt3__16vectorINS0_IdNS_9allocatorIdEEEENS1_IS3_EEE22__base_destruct_at_endB8ne180100EPS3_, symObjAddr: 0x4140, symBinAddr: 0x100006DB8, symSize: 0x8C }
  - { offsetInCU: 0xF0B3, offset: 0xF0B3, size: 0x8, addend: 0x0, symName: __ZNSt3__116allocator_traitsINS_9allocatorINS_6vectorIdNS1_IdEEEEEEE7destroyB8ne180100IS4_vEEvRS5_PT_, symObjAddr: 0x41CC, symBinAddr: 0x100006E44, symSize: 0x2C }
  - { offsetInCU: 0xF0F0, offset: 0xF0F0, size: 0x8, addend: 0x0, symName: __ZNSt3__19allocatorINS_6vectorIdNS0_IdEEEEE7destroyB8ne180100EPS3_, symObjAddr: 0x41F8, symBinAddr: 0x100006E70, symSize: 0x28 }
  - { offsetInCU: 0xF124, offset: 0xF124, size: 0x8, addend: 0x0, symName: __ZNSt3__19allocatorINS_6vectorIdNS0_IdEEEEE10deallocateB8ne180100EPS3_m, symObjAddr: 0x4220, symBinAddr: 0x100006E98, symSize: 0x44 }
  - { offsetInCU: 0xF166, offset: 0xF166, size: 0x8, addend: 0x0, symName: __ZNKSt3__16vectorINS0_IdNS_9allocatorIdEEEENS1_IS3_EEE9__end_capB8ne180100Ev, symObjAddr: 0x4264, symBinAddr: 0x100006EDC, symSize: 0x28 }
  - { offsetInCU: 0xF18C, offset: 0xF18C, size: 0x8, addend: 0x0, symName: __ZNKSt3__117__compressed_pairIPNS_6vectorIdNS_9allocatorIdEEEENS2_IS4_EEE5firstB8ne180100Ev, symObjAddr: 0x428C, symBinAddr: 0x100006F04, symSize: 0x24 }
  - { offsetInCU: 0xF1B2, offset: 0xF1B2, size: 0x8, addend: 0x0, symName: __ZNKSt3__122__compressed_pair_elemIPNS_6vectorIdNS_9allocatorIdEEEELi0ELb0EE5__getB8ne180100Ev, symObjAddr: 0x42B0, symBinAddr: 0x100006F28, symSize: 0x14 }
  - { offsetInCU: 0xF1D8, offset: 0xF1D8, size: 0x8, addend: 0x0, symName: __ZNSt3__16vectorINS0_IdNS_9allocatorIdEEEENS1_IS3_EEED2B8ne180100Ev, symObjAddr: 0x42C4, symBinAddr: 0x100006F3C, symSize: 0x40 }
  - { offsetInCU: 0xF202, offset: 0xF202, size: 0x8, addend: 0x0, symName: __ZNSt3__16vectorIdNS_9allocatorIdEEEC2EmRKd, symObjAddr: 0x4304, symBinAddr: 0x100006F7C, symSize: 0xDC }
  - { offsetInCU: 0xF261, offset: 0xF261, size: 0x8, addend: 0x0, symName: __ZNSt3__16vectorIdNS_9allocatorIdEEE18__construct_at_endEmRKd, symObjAddr: 0x43E0, symBinAddr: 0x100007058, symSize: 0xD0 }
  - { offsetInCU: 0xF2E2, offset: 0xF2E2, size: 0x8, addend: 0x0, symName: __ZNSt3__116allocator_traitsINS_9allocatorIdEEE9constructB8ne180100IdJRKdEvEEvRS2_PT_DpOT0_, symObjAddr: 0x44B0, symBinAddr: 0x100007128, symSize: 0x34 }
  - { offsetInCU: 0xF339, offset: 0xF339, size: 0x8, addend: 0x0, symName: __ZNSt3__19allocatorIdE9constructB8ne180100IdJRKdEEEvPT_DpOT0_, symObjAddr: 0x44E4, symBinAddr: 0x10000715C, symSize: 0x28 }
  - { offsetInCU: 0xF38F, offset: 0xF38F, size: 0x8, addend: 0x0, symName: __ZNSt3__16vectorINS0_IdNS_9allocatorIdEEEENS1_IS3_EEEC2ERKS5_, symObjAddr: 0x450C, symBinAddr: 0x100007184, symSize: 0x94 }
  - { offsetInCU: 0xF3CA, offset: 0xF3CA, size: 0x8, addend: 0x0, symName: __ZNSt3__116allocator_traitsINS_9allocatorINS_6vectorIdNS1_IdEEEEEEE37select_on_container_copy_constructionB8ne180100IS5_vvEES5_RKS5_, symObjAddr: 0x45A0, symBinAddr: 0x100007218, symSize: 0x10 }
  - { offsetInCU: 0xF3FE, offset: 0xF3FE, size: 0x8, addend: 0x0, symName: __ZNSt3__117__compressed_pairIPNS_6vectorIdNS_9allocatorIdEEEENS2_IS4_EEEC1B8ne180100IDnS6_EEOT_OT0_, symObjAddr: 0x45B0, symBinAddr: 0x100007228, symSize: 0x3C }
  - { offsetInCU: 0xF456, offset: 0xF456, size: 0x8, addend: 0x0, symName: __ZNSt3__16vectorINS0_IdNS_9allocatorIdEEEENS1_IS3_EEE16__init_with_sizeB8ne180100IPS3_S7_EEvT_T0_m, symObjAddr: 0x45EC, symBinAddr: 0x100007264, symSize: 0xB8 }
  - { offsetInCU: 0xF4CA, offset: 0xF4CA, size: 0x8, addend: 0x0, symName: __ZNSt3__117__compressed_pairIPNS_6vectorIdNS_9allocatorIdEEEENS2_IS4_EEEC2B8ne180100IDnS6_EEOT_OT0_, symObjAddr: 0x46A4, symBinAddr: 0x10000731C, symSize: 0x44 }
  - { offsetInCU: 0xF522, offset: 0xF522, size: 0x8, addend: 0x0, symName: __ZNSt3__122__compressed_pair_elemINS_9allocatorINS_6vectorIdNS1_IdEEEEEELi1ELb1EEC2B8ne180100IS5_vEEOT_, symObjAddr: 0x46E8, symBinAddr: 0x100007360, symSize: 0x18 }
  - { offsetInCU: 0xF564, offset: 0xF564, size: 0x8, addend: 0x0, symName: __ZNSt3__16vectorINS0_IdNS_9allocatorIdEEEENS1_IS3_EEE18__construct_at_endIPS3_S7_EEvT_T0_m, symObjAddr: 0x4700, symBinAddr: 0x100007378, symSize: 0x8C }
  - { offsetInCU: 0xF5F8, offset: 0xF5F8, size: 0x8, addend: 0x0, symName: __ZNSt3__14pairIPNS_6vectorIdNS_9allocatorIdEEEES5_EC1B8ne180100IS5_S5_Li0EEEOT_OT0_, symObjAddr: 0x49F8, symBinAddr: 0x100007670, symSize: 0x3C }
  - { offsetInCU: 0xF656, offset: 0xF656, size: 0x8, addend: 0x0, symName: __ZNSt3__14pairIPNS_6vectorIdNS_9allocatorIdEEEES5_EC2B8ne180100IS5_S5_Li0EEEOT_OT0_, symObjAddr: 0x4A34, symBinAddr: 0x1000076AC, symSize: 0x34 }
  - { offsetInCU: 0xF6B4, offset: 0xF6B4, size: 0x8, addend: 0x0, symName: __ZNSt3__129_AllocatorDestroyRangeReverseINS_9allocatorINS_6vectorIdNS1_IdEEEEEEPS4_EC1B8ne180100ERS5_RS6_S9_, symObjAddr: 0x4AB4, symBinAddr: 0x10000772C, symSize: 0x44 }
  - { offsetInCU: 0xF70B, offset: 0xF70B, size: 0x8, addend: 0x0, symName: __ZNSt3__116allocator_traitsINS_9allocatorINS_6vectorIdNS1_IdEEEEEEE9constructB8ne180100IS4_JRS4_EvEEvRS5_PT_DpOT0_, symObjAddr: 0x4AF8, symBinAddr: 0x100007770, symSize: 0x34 }
  - { offsetInCU: 0xF762, offset: 0xF762, size: 0x8, addend: 0x0, symName: __ZNSt3__128__exception_guard_exceptionsINS_29_AllocatorDestroyRangeReverseINS_9allocatorINS_6vectorIdNS2_IdEEEEEEPS5_EEE10__completeB8ne180100Ev, symObjAddr: 0x4B2C, symBinAddr: 0x1000077A4, symSize: 0x1C }
  - { offsetInCU: 0xF788, offset: 0xF788, size: 0x8, addend: 0x0, symName: __ZNSt3__128__exception_guard_exceptionsINS_29_AllocatorDestroyRangeReverseINS_9allocatorINS_6vectorIdNS2_IdEEEEEEPS5_EEED1B8ne180100Ev, symObjAddr: 0x4B48, symBinAddr: 0x1000077C0, symSize: 0x2C }
  - { offsetInCU: 0xF7B2, offset: 0xF7B2, size: 0x8, addend: 0x0, symName: __ZNSt3__128__exception_guard_exceptionsINS_29_AllocatorDestroyRangeReverseINS_9allocatorINS_6vectorIdNS2_IdEEEEEEPS5_EEEC1B8ne180100ES8_, symObjAddr: 0x4B74, symBinAddr: 0x1000077EC, symSize: 0x34 }
  - { offsetInCU: 0xF7EB, offset: 0xF7EB, size: 0x8, addend: 0x0, symName: __ZNSt3__128__exception_guard_exceptionsINS_29_AllocatorDestroyRangeReverseINS_9allocatorINS_6vectorIdNS2_IdEEEEEEPS5_EEEC2B8ne180100ES8_, symObjAddr: 0x4BA8, symBinAddr: 0x100007820, symSize: 0x30 }
  - { offsetInCU: 0xF824, offset: 0xF824, size: 0x8, addend: 0x0, symName: __ZNSt3__129_AllocatorDestroyRangeReverseINS_9allocatorINS_6vectorIdNS1_IdEEEEEEPS4_EC2B8ne180100ERS5_RS6_S9_, symObjAddr: 0x4BD8, symBinAddr: 0x100007850, symSize: 0x38 }
  - { offsetInCU: 0xF87B, offset: 0xF87B, size: 0x8, addend: 0x0, symName: __ZNSt3__19allocatorINS_6vectorIdNS0_IdEEEEE9constructB8ne180100IS3_JRS3_EEEvPT_DpOT0_, symObjAddr: 0x4C10, symBinAddr: 0x100007888, symSize: 0x30 }
  - { offsetInCU: 0xF8D1, offset: 0xF8D1, size: 0x8, addend: 0x0, symName: __ZNSt3__128__exception_guard_exceptionsINS_29_AllocatorDestroyRangeReverseINS_9allocatorINS_6vectorIdNS2_IdEEEEEEPS5_EEED2B8ne180100Ev, symObjAddr: 0x4C40, symBinAddr: 0x1000078B8, symSize: 0x50 }
  - { offsetInCU: 0xF8FB, offset: 0xF8FB, size: 0x8, addend: 0x0, symName: __ZNKSt3__129_AllocatorDestroyRangeReverseINS_9allocatorINS_6vectorIdNS1_IdEEEEEEPS4_EclB8ne180100Ev, symObjAddr: 0x4C90, symBinAddr: 0x100007908, symSize: 0x68 }
  - { offsetInCU: 0xF921, offset: 0xF921, size: 0x8, addend: 0x0, symName: __ZNSt3__116reverse_iteratorIPNS_6vectorIdNS_9allocatorIdEEEEEC1B8ne180100ES5_, symObjAddr: 0x4D68, symBinAddr: 0x1000079E0, symSize: 0x34 }
  - { offsetInCU: 0xF959, offset: 0xF959, size: 0x8, addend: 0x0, symName: __ZNSt3__116reverse_iteratorIPNS_6vectorIdNS_9allocatorIdEEEEEppB8ne180100Ev, symObjAddr: 0x4E08, symBinAddr: 0x100007A80, symSize: 0x20 }
  - { offsetInCU: 0xF97F, offset: 0xF97F, size: 0x8, addend: 0x0, symName: __ZNKSt3__116reverse_iteratorIPNS_6vectorIdNS_9allocatorIdEEEEE4baseB8ne180100Ev, symObjAddr: 0x4E28, symBinAddr: 0x100007AA0, symSize: 0x18 }
  - { offsetInCU: 0xF9AA, offset: 0xF9AA, size: 0x8, addend: 0x0, symName: __ZNSt3__119__to_address_helperINS_16reverse_iteratorIPNS_6vectorIdNS_9allocatorIdEEEEEEvE6__callB8ne180100ERKS7_, symObjAddr: 0x4E40, symBinAddr: 0x100007AB8, symSize: 0x38 }
  - { offsetInCU: 0xF9CD, offset: 0xF9CD, size: 0x8, addend: 0x0, symName: __ZNKSt3__116reverse_iteratorIPNS_6vectorIdNS_9allocatorIdEEEEEptB8ne180100Ev, symObjAddr: 0x4E78, symBinAddr: 0x100007AF0, symSize: 0x24 }
  - { offsetInCU: 0xF9F3, offset: 0xF9F3, size: 0x8, addend: 0x0, symName: __ZNKSt3__116reverse_iteratorIPNS_6vectorIdNS_9allocatorIdEEEEEdeB8ne180100Ev, symObjAddr: 0x4E9C, symBinAddr: 0x100007B14, symSize: 0x28 }
  - { offsetInCU: 0xFA27, offset: 0xFA27, size: 0x8, addend: 0x0, symName: __ZNSt3__116reverse_iteratorIPNS_6vectorIdNS_9allocatorIdEEEEEC2B8ne180100ES5_, symObjAddr: 0x4EC4, symBinAddr: 0x100007B3C, symSize: 0x28 }
  - { offsetInCU: 0xFA5F, offset: 0xFA5F, size: 0x8, addend: 0x0, symName: __ZNSt3__118__unwrap_iter_implIPNS_6vectorIdNS_9allocatorIdEEEELb1EE8__unwrapB8ne180100ES5_, symObjAddr: 0x4EEC, symBinAddr: 0x100007B64, symSize: 0x24 }
  - { offsetInCU: 0xFA82, offset: 0xFA82, size: 0x8, addend: 0x0, symName: __ZNSt3__118__unwrap_iter_implIPNS_6vectorIdNS_9allocatorIdEEEELb1EE8__rewrapB8ne180100ES5_S5_, symObjAddr: 0x4F10, symBinAddr: 0x100007B88, symSize: 0x58 }
  - { offsetInCU: 0xFAB3, offset: 0xFAB3, size: 0x8, addend: 0x0, symName: __ZNKSt3__16vectorINS0_IdNS_9allocatorIdEEEENS1_IS3_EEE11__make_iterB8ne180100EPKS3_, symObjAddr: 0x4F68, symBinAddr: 0x100007BE0, symSize: 0x30 }
  - { offsetInCU: 0xFAE8, offset: 0xFAE8, size: 0x8, addend: 0x0, symName: __ZNSt3__111__wrap_iterIPKNS_6vectorIdNS_9allocatorIdEEEEEC1B8ne180100ES6_, symObjAddr: 0x4F98, symBinAddr: 0x100007C10, symSize: 0x34 }
  - { offsetInCU: 0xFB20, offset: 0xFB20, size: 0x8, addend: 0x0, symName: __ZNSt3__111__wrap_iterIPKNS_6vectorIdNS_9allocatorIdEEEEEC2B8ne180100ES6_, symObjAddr: 0x4FCC, symBinAddr: 0x100007C44, symSize: 0x20 }
  - { offsetInCU: 0xFB58, offset: 0xFB58, size: 0x8, addend: 0x0, symName: __ZNSt3__16vectorINS0_IdNS_9allocatorIdEEEENS1_IS3_EEEC2B8ne180100EOS5_, symObjAddr: 0x4FEC, symBinAddr: 0x100007C64, symSize: 0xC4 }
  - { offsetInCU: 0xFB93, offset: 0xFB93, size: 0x8, addend: 0x0, symName: __ZNSt3__16vectorINS0_IdNS_9allocatorIdEEEENS1_IS3_EEE19__copy_assign_allocB8ne180100ERKS5_, symObjAddr: 0x50B0, symBinAddr: 0x100007D28, symSize: 0x2C }
  - { offsetInCU: 0xFBC8, offset: 0xFBC8, size: 0x8, addend: 0x0, symName: __ZNSt3__16vectorINS0_IdNS_9allocatorIdEEEENS1_IS3_EEE6assignIPS3_Li0EEEvT_S8_, symObjAddr: 0x50DC, symBinAddr: 0x100007D54, symSize: 0x5C }
  - { offsetInCU: 0xFC1D, offset: 0xFC1D, size: 0x8, addend: 0x0, symName: __ZNSt3__16vectorINS0_IdNS_9allocatorIdEEEENS1_IS3_EEE19__copy_assign_allocB8ne180100ERKS5_NS_17integral_constantIbLb0EEE, symObjAddr: 0x5138, symBinAddr: 0x100007DB0, symSize: 0x14 }
  - { offsetInCU: 0xFC59, offset: 0xFC59, size: 0x8, addend: 0x0, symName: __ZNSt3__16vectorINS0_IdNS_9allocatorIdEEEENS1_IS3_EEE18__assign_with_sizeB8ne180100IPS3_S7_EEvT_T0_l, symObjAddr: 0x514C, symBinAddr: 0x100007DC4, symSize: 0x164 }
  - { offsetInCU: 0xFD09, offset: 0xFD09, size: 0x8, addend: 0x0, symName: __ZNSt3__16vectorINS0_IdNS_9allocatorIdEEEENS1_IS3_EEE17__destruct_at_endB8ne180100EPS3_, symObjAddr: 0x5394, symBinAddr: 0x10000800C, symSize: 0x4C }
  - { offsetInCU: 0xFD4D, offset: 0xFD4D, size: 0x8, addend: 0x0, symName: __ZNSt3__16vectorINS0_IdNS_9allocatorIdEEEENS1_IS3_EEE13__vdeallocateEv, symObjAddr: 0x53E0, symBinAddr: 0x100008058, symSize: 0x94 }
  - { offsetInCU: 0xFD75, offset: 0xFD75, size: 0x8, addend: 0x0, symName: __ZNKSt3__16vectorINS0_IdNS_9allocatorIdEEEENS1_IS3_EEE11__recommendB8ne180100Em, symObjAddr: 0x5474, symBinAddr: 0x1000080EC, symSize: 0xB4 }
  - { offsetInCU: 0xFDD4, offset: 0xFDD4, size: 0x8, addend: 0x0, symName: __ZNKSt3__111__copy_loopINS_17_ClassicAlgPolicyEEclB8ne180100IPNS_6vectorIdNS_9allocatorIdEEEES8_S8_EENS_4pairIT_T1_EESA_T0_SB_, symObjAddr: 0x569C, symBinAddr: 0x100008314, symSize: 0x88 }
  - { offsetInCU: 0xFE3F, offset: 0xFE3F, size: 0x8, addend: 0x0, symName: __ZNSt3__16vectorIdNS_9allocatorIdEEEaSB8ne180100ERKS3_, symObjAddr: 0x5750, symBinAddr: 0x1000083C8, symSize: 0x68 }
  - { offsetInCU: 0xFE76, offset: 0xFE76, size: 0x8, addend: 0x0, symName: __ZNSt3__16vectorIdNS_9allocatorIdEEE19__copy_assign_allocB8ne180100ERKS3_, symObjAddr: 0x57B8, symBinAddr: 0x100008430, symSize: 0x2C }
  - { offsetInCU: 0xFEAB, offset: 0xFEAB, size: 0x8, addend: 0x0, symName: __ZNSt3__16vectorIdNS_9allocatorIdEEE6assignIPdLi0EEEvT_S6_, symObjAddr: 0x57E4, symBinAddr: 0x10000845C, symSize: 0x5C }
  - { offsetInCU: 0xFF00, offset: 0xFF00, size: 0x8, addend: 0x0, symName: __ZNSt3__16vectorIdNS_9allocatorIdEEE19__copy_assign_allocB8ne180100ERKS3_NS_17integral_constantIbLb0EEE, symObjAddr: 0x5840, symBinAddr: 0x1000084B8, symSize: 0x14 }
  - { offsetInCU: 0xFF3C, offset: 0xFF3C, size: 0x8, addend: 0x0, symName: __ZNSt3__16vectorIdNS_9allocatorIdEEE18__assign_with_sizeB8ne180100IPdS5_EEvT_T0_l, symObjAddr: 0x5854, symBinAddr: 0x1000084CC, symSize: 0x164 }
  - { offsetInCU: 0xFFEC, offset: 0xFFEC, size: 0x8, addend: 0x0, symName: __ZNSt3__16vectorIdNS_9allocatorIdEEE17__destruct_at_endB8ne180100EPd, symObjAddr: 0x5A18, symBinAddr: 0x100008690, symSize: 0x4C }
  - { offsetInCU: 0x10030, offset: 0x10030, size: 0x8, addend: 0x0, symName: __ZNSt3__16vectorIdNS_9allocatorIdEEE13__vdeallocateEv, symObjAddr: 0x5A64, symBinAddr: 0x1000086DC, symSize: 0x94 }
  - { offsetInCU: 0x10058, offset: 0x10058, size: 0x8, addend: 0x0, symName: __ZNKSt3__16vectorIdNS_9allocatorIdEEE11__recommendB8ne180100Em, symObjAddr: 0x5AF8, symBinAddr: 0x100008770, symSize: 0xB4 }
  - { offsetInCU: 0x100AD, offset: 0x100AD, size: 0x8, addend: 0x0, symName: __ZNKSt3__16vectorIdNS_9allocatorIdEEE17__annotate_shrinkB8ne180100Em, symObjAddr: 0x5C0C, symBinAddr: 0x100008884, symSize: 0x14 }
  - { offsetInCU: 0x100E2, offset: 0x100E2, size: 0x8, addend: 0x0, symName: __ZNSt3__16vectorIdNS_9allocatorIdEEE5clearB8ne180100Ev, symObjAddr: 0x5C20, symBinAddr: 0x100008898, symSize: 0x44 }
  - { offsetInCU: 0x10117, offset: 0x10117, size: 0x8, addend: 0x0, symName: __ZNKSt3__16vectorINS0_IdNS_9allocatorIdEEEENS1_IS3_EEE17__annotate_shrinkB8ne180100Em, symObjAddr: 0x5D0C, symBinAddr: 0x100008984, symSize: 0x14 }
  - { offsetInCU: 0x1014C, offset: 0x1014C, size: 0x8, addend: 0x0, symName: __ZNSt3__16vectorINS0_IdNS_9allocatorIdEEEENS1_IS3_EEE5clearB8ne180100Ev, symObjAddr: 0x5D20, symBinAddr: 0x100008998, symSize: 0x44 }
  - { offsetInCU: 0x10181, offset: 0x10181, size: 0x8, addend: 0x0, symName: __ZNSt3__16vectorINS0_IdNS_9allocatorIdEEEENS1_IS3_EEE13__move_assignERS5_NS_17integral_constantIbLb1EEE, symObjAddr: 0x5D8C, symBinAddr: 0x100008A04, symSize: 0x94 }
  - { offsetInCU: 0x101C3, offset: 0x101C3, size: 0x8, addend: 0x0, symName: __ZNSt3__16vectorINS0_IdNS_9allocatorIdEEEENS1_IS3_EEE19__move_assign_allocB8ne180100ERS5_, symObjAddr: 0x5E20, symBinAddr: 0x100008A98, symSize: 0x2C }
  - { offsetInCU: 0x101F8, offset: 0x101F8, size: 0x8, addend: 0x0, symName: __ZNSt3__16vectorINS0_IdNS_9allocatorIdEEEENS1_IS3_EEE19__move_assign_allocB8ne180100ERS5_NS_17integral_constantIbLb1EEE, symObjAddr: 0x5E4C, symBinAddr: 0x100008AC4, symSize: 0x38 }
  - { offsetInCU: 0x10238, offset: 0x10238, size: 0x8, addend: 0x0, symName: __ZNSt3__111char_traitsIcE6lengthB8ne180100EPKc, symObjAddr: 0x6070, symBinAddr: 0x100008CE8, symSize: 0x34 }
  - { offsetInCU: 0x10279, offset: 0x10279, size: 0x8, addend: 0x0, symName: __ZNKSt3__113basic_ostreamIcNS_11char_traitsIcEEE6sentrycvbB8ne180100Ev, symObjAddr: 0x60A4, symBinAddr: 0x100008D1C, symSize: 0x1C }
  - { offsetInCU: 0x1029F, offset: 0x1029F, size: 0x8, addend: 0x0, symName: __ZNSt3__119ostreambuf_iteratorIcNS_11char_traitsIcEEEC1B8ne180100ERNS_13basic_ostreamIcS2_EE, symObjAddr: 0x6300, symBinAddr: 0x100008F78, symSize: 0x34 }
  - { offsetInCU: 0x102D7, offset: 0x102D7, size: 0x8, addend: 0x0, symName: __ZNKSt3__18ios_base5flagsB8ne180100Ev, symObjAddr: 0x6334, symBinAddr: 0x100008FAC, symSize: 0x18 }
  - { offsetInCU: 0x102FF, offset: 0x102FF, size: 0x8, addend: 0x0, symName: __ZNKSt3__19basic_iosIcNS_11char_traitsIcEEE4fillB8ne180100Ev, symObjAddr: 0x634C, symBinAddr: 0x100008FC4, symSize: 0x64 }
  - { offsetInCU: 0x10327, offset: 0x10327, size: 0x8, addend: 0x0, symName: __ZNKSt3__119ostreambuf_iteratorIcNS_11char_traitsIcEEE6failedB8ne180100Ev, symObjAddr: 0x63B0, symBinAddr: 0x100009028, symSize: 0x24 }
  - { offsetInCU: 0x1034D, offset: 0x1034D, size: 0x8, addend: 0x0, symName: __ZNSt3__19basic_iosIcNS_11char_traitsIcEEE8setstateB8ne180100Ej, symObjAddr: 0x63D4, symBinAddr: 0x10000904C, symSize: 0x2C }
  - { offsetInCU: 0x10382, offset: 0x10382, size: 0x8, addend: 0x0, symName: __ZNKSt3__18ios_base5widthB8ne180100Ev, symObjAddr: 0x6400, symBinAddr: 0x100009078, symSize: 0x18 }
  - { offsetInCU: 0x103AA, offset: 0x103AA, size: 0x8, addend: 0x0, symName: __ZNSt3__115basic_streambufIcNS_11char_traitsIcEEE5sputnB8ne180100EPKcl, symObjAddr: 0x6418, symBinAddr: 0x100009090, symSize: 0x3C }
  - { offsetInCU: 0x103EC, offset: 0x103EC, size: 0x8, addend: 0x0, symName: __ZNSt3__112basic_stringIcNS_11char_traitsIcEENS_9allocatorIcEEEC1B8ne180100Emc, symObjAddr: 0x6454, symBinAddr: 0x1000090CC, symSize: 0x3C }
  - { offsetInCU: 0x10434, offset: 0x10434, size: 0x8, addend: 0x0, symName: __ZNSt3__112basic_stringIcNS_11char_traitsIcEENS_9allocatorIcEEE4dataB8ne180100Ev, symObjAddr: 0x6490, symBinAddr: 0x100009108, symSize: 0x28 }
  - { offsetInCU: 0x1045A, offset: 0x1045A, size: 0x8, addend: 0x0, symName: __ZNSt3__18ios_base5widthB8ne180100El, symObjAddr: 0x64B8, symBinAddr: 0x100009130, symSize: 0x2C }
  - { offsetInCU: 0x104A0, offset: 0x104A0, size: 0x8, addend: 0x0, symName: __ZNSt3__112basic_stringIcNS_11char_traitsIcEENS_9allocatorIcEEEC2B8ne180100Emc, symObjAddr: 0x64E4, symBinAddr: 0x10000915C, symSize: 0x4C }
  - { offsetInCU: 0x104E8, offset: 0x104E8, size: 0x8, addend: 0x0, symName: __ZNSt3__117__compressed_pairINS_12basic_stringIcNS_11char_traitsIcEENS_9allocatorIcEEE5__repES5_EC1B8ne180100INS_18__default_init_tagESA_EEOT_OT0_, symObjAddr: 0x6530, symBinAddr: 0x1000091A8, symSize: 0x3C }
  - { offsetInCU: 0x10540, offset: 0x10540, size: 0x8, addend: 0x0, symName: __ZNSt3__117__compressed_pairINS_12basic_stringIcNS_11char_traitsIcEENS_9allocatorIcEEE5__repES5_EC2B8ne180100INS_18__default_init_tagESA_EEOT_OT0_, symObjAddr: 0x656C, symBinAddr: 0x1000091E4, symSize: 0x3C }
  - { offsetInCU: 0x10598, offset: 0x10598, size: 0x8, addend: 0x0, symName: __ZNSt3__122__compressed_pair_elemINS_12basic_stringIcNS_11char_traitsIcEENS_9allocatorIcEEE5__repELi0ELb0EEC2B8ne180100ENS_18__default_init_tagE, symObjAddr: 0x65A8, symBinAddr: 0x100009220, symSize: 0x14 }
  - { offsetInCU: 0x105CC, offset: 0x105CC, size: 0x8, addend: 0x0, symName: __ZNSt3__122__compressed_pair_elemINS_9allocatorIcEELi1ELb1EEC2B8ne180100ENS_18__default_init_tagE, symObjAddr: 0x65BC, symBinAddr: 0x100009234, symSize: 0x2C }
  - { offsetInCU: 0x10600, offset: 0x10600, size: 0x8, addend: 0x0, symName: __ZNSt3__19allocatorIcEC2B8ne180100Ev, symObjAddr: 0x65E8, symBinAddr: 0x100009260, symSize: 0x2C }
  - { offsetInCU: 0x1062A, offset: 0x1062A, size: 0x8, addend: 0x0, symName: __ZNSt3__116__non_trivial_ifILb1ENS_9allocatorIcEEEC2B8ne180100Ev, symObjAddr: 0x6614, symBinAddr: 0x10000928C, symSize: 0x14 }
  - { offsetInCU: 0x10654, offset: 0x10654, size: 0x8, addend: 0x0, symName: __ZNSt3__112basic_stringIcNS_11char_traitsIcEENS_9allocatorIcEEE13__get_pointerB8ne180100Ev, symObjAddr: 0x663C, symBinAddr: 0x1000092B4, symSize: 0x54 }
  - { offsetInCU: 0x1067A, offset: 0x1067A, size: 0x8, addend: 0x0, symName: __ZNKSt3__112basic_stringIcNS_11char_traitsIcEENS_9allocatorIcEEE9__is_longB8ne180100Ev, symObjAddr: 0x6690, symBinAddr: 0x100009308, symSize: 0x38 }
  - { offsetInCU: 0x106A0, offset: 0x106A0, size: 0x8, addend: 0x0, symName: __ZNSt3__112basic_stringIcNS_11char_traitsIcEENS_9allocatorIcEEE18__get_long_pointerB8ne180100Ev, symObjAddr: 0x66C8, symBinAddr: 0x100009340, symSize: 0x28 }
  - { offsetInCU: 0x106C6, offset: 0x106C6, size: 0x8, addend: 0x0, symName: __ZNSt3__112basic_stringIcNS_11char_traitsIcEENS_9allocatorIcEEE19__get_short_pointerB8ne180100Ev, symObjAddr: 0x66F0, symBinAddr: 0x100009368, symSize: 0x28 }
  - { offsetInCU: 0x106EC, offset: 0x106EC, size: 0x8, addend: 0x0, symName: __ZNKSt3__117__compressed_pairINS_12basic_stringIcNS_11char_traitsIcEENS_9allocatorIcEEE5__repES5_E5firstB8ne180100Ev, symObjAddr: 0x6718, symBinAddr: 0x100009390, symSize: 0x24 }
  - { offsetInCU: 0x10712, offset: 0x10712, size: 0x8, addend: 0x0, symName: __ZNKSt3__122__compressed_pair_elemINS_12basic_stringIcNS_11char_traitsIcEENS_9allocatorIcEEE5__repELi0ELb0EE5__getB8ne180100Ev, symObjAddr: 0x673C, symBinAddr: 0x1000093B4, symSize: 0x14 }
  - { offsetInCU: 0x10738, offset: 0x10738, size: 0x8, addend: 0x0, symName: __ZNSt3__117__compressed_pairINS_12basic_stringIcNS_11char_traitsIcEENS_9allocatorIcEEE5__repES5_E5firstB8ne180100Ev, symObjAddr: 0x6750, symBinAddr: 0x1000093C8, symSize: 0x24 }
  - { offsetInCU: 0x1075E, offset: 0x1075E, size: 0x8, addend: 0x0, symName: __ZNSt3__122__compressed_pair_elemINS_12basic_stringIcNS_11char_traitsIcEENS_9allocatorIcEEE5__repELi0ELb0EE5__getB8ne180100Ev, symObjAddr: 0x6774, symBinAddr: 0x1000093EC, symSize: 0x14 }
  - { offsetInCU: 0x10784, offset: 0x10784, size: 0x8, addend: 0x0, symName: __ZNSt3__114pointer_traitsIPcE10pointer_toB8ne180100ERc, symObjAddr: 0x6788, symBinAddr: 0x100009400, symSize: 0x14 }
  - { offsetInCU: 0x107A7, offset: 0x107A7, size: 0x8, addend: 0x0, symName: __ZNSt3__119ostreambuf_iteratorIcNS_11char_traitsIcEEEC2B8ne180100ERNS_13basic_ostreamIcS2_EE, symObjAddr: 0x679C, symBinAddr: 0x100009414, symSize: 0x54 }
  - { offsetInCU: 0x107DF, offset: 0x107DF, size: 0x8, addend: 0x0, symName: __ZNKSt3__19basic_iosIcNS_11char_traitsIcEEE5rdbufB8ne180100Ev, symObjAddr: 0x67F0, symBinAddr: 0x100009468, symSize: 0x24 }
  - { offsetInCU: 0x10807, offset: 0x10807, size: 0x8, addend: 0x0, symName: __ZNKSt3__18ios_base5rdbufB8ne180100Ev, symObjAddr: 0x6814, symBinAddr: 0x10000948C, symSize: 0x18 }
  - { offsetInCU: 0x1082D, offset: 0x1082D, size: 0x8, addend: 0x0, symName: __ZNSt3__111char_traitsIcE11eq_int_typeB8ne180100Eii, symObjAddr: 0x682C, symBinAddr: 0x1000094A4, symSize: 0x28 }
  - { offsetInCU: 0x10860, offset: 0x10860, size: 0x8, addend: 0x0, symName: __ZNSt3__111char_traitsIcE3eofB8ne180100Ev, symObjAddr: 0x6854, symBinAddr: 0x1000094CC, symSize: 0x8 }
  - { offsetInCU: 0x10874, offset: 0x10874, size: 0x8, addend: 0x0, symName: __ZNKSt3__19basic_iosIcNS_11char_traitsIcEEE5widenB8ne180100Ec, symObjAddr: 0x685C, symBinAddr: 0x1000094D4, symSize: 0x84 }
  - { offsetInCU: 0x108DD, offset: 0x108DD, size: 0x8, addend: 0x0, symName: __ZNKSt3__15ctypeIcE5widenB8ne180100Ec, symObjAddr: 0x690C, symBinAddr: 0x100009584, symSize: 0x38 }
  - { offsetInCU: 0x10912, offset: 0x10912, size: 0x8, addend: 0x0, symName: __ZNSt3__18ios_base8setstateB8ne180100Ej, symObjAddr: 0x6944, symBinAddr: 0x1000095BC, symSize: 0x34 }
  - { offsetInCU: 0x4153, offset: 0x14BB8, size: 0x8, addend: 0x0, symName: __ZN2la3dotERKNS_6vector6VectorES3_, symObjAddr: 0x0, symBinAddr: 0x100009614, symSize: 0x118 }
  - { offsetInCU: 0x41B7, offset: 0x14C1C, size: 0x8, addend: 0x0, symName: __ZN2la3dotERKNS_6matrix6MatrixERKNS_6vector6VectorE, symObjAddr: 0x170, symBinAddr: 0x10000972C, symSize: 0x1CC }
  - { offsetInCU: 0x440E, offset: 0x14E73, size: 0x8, addend: 0x0, symName: __ZN2la3dotERKNS_6vector6VectorERKNS_6matrix6MatrixE, symObjAddr: 0x3B8, symBinAddr: 0x100009924, symSize: 0x1CC }
  - { offsetInCU: 0x448F, offset: 0x14EF4, size: 0x8, addend: 0x0, symName: __ZN2la5outerERKNS_6vector6VectorES3_, symObjAddr: 0x584, symBinAddr: 0x100009AF0, symSize: 0x144 }
  - { offsetInCU: 0x47FD, offset: 0x15262, size: 0x8, addend: 0x0, symName: __ZN2la6vector6VectorD1Ev, symObjAddr: 0x38C, symBinAddr: 0x1000098F8, symSize: 0x2C }
  - { offsetInCU: 0x4845, offset: 0x152AA, size: 0x8, addend: 0x0, symName: __ZN2la6vector6VectorD2Ev, symObjAddr: 0x76C, symBinAddr: 0x100009C34, symSize: 0x30 }
  - { offsetInCU: 0x6D48, offset: 0x1C021, size: 0x8, addend: 0x0, symName: __ZN2la6vectorlsERNSt3__113basic_ostreamIcNS1_11char_traitsIcEEEERKNS0_6VectorE, symObjAddr: 0xE68, symBinAddr: 0x10000A890, symSize: 0xD8 }
  - { offsetInCU: 0x6DBF, offset: 0x1C098, size: 0x8, addend: 0x0, symName: __ZN2la6vector6VectorC2Em, symObjAddr: 0x0, symBinAddr: 0x100009C64, symSize: 0x40 }
  - { offsetInCU: 0x6DF9, offset: 0x1C0D2, size: 0x8, addend: 0x0, symName: __ZN2la6vector6VectorC1Em, symObjAddr: 0x74, symBinAddr: 0x100009CA4, symSize: 0x34 }
  - { offsetInCU: 0x6E33, offset: 0x1C10C, size: 0x8, addend: 0x0, symName: __ZN2la6vector6VectorC2Emd, symObjAddr: 0xA8, symBinAddr: 0x100009CD8, symSize: 0x48 }
  - { offsetInCU: 0x6E7B, offset: 0x1C154, size: 0x8, addend: 0x0, symName: __ZN2la6vector6VectorC1Emd, symObjAddr: 0x12C, symBinAddr: 0x100009D20, symSize: 0x3C }
  - { offsetInCU: 0x6EC3, offset: 0x1C19C, size: 0x8, addend: 0x0, symName: __ZN2la6vector6VectorC2ERKNSt3__16vectorIdNS2_9allocatorIdEEEE, symObjAddr: 0x168, symBinAddr: 0x100009D5C, symSize: 0xE0 }
  - { offsetInCU: 0x6EFD, offset: 0x1C1D6, size: 0x8, addend: 0x0, symName: __ZN2la6vector6VectorC1ERKNSt3__16vectorIdNS2_9allocatorIdEEEE, symObjAddr: 0x304, symBinAddr: 0x100009E3C, symSize: 0x34 }
  - { offsetInCU: 0x6F37, offset: 0x1C210, size: 0x8, addend: 0x0, symName: __ZN2la6vector6VectorC2ERKS1_, symObjAddr: 0x338, symBinAddr: 0x100009E70, symSize: 0x48 }
  - { offsetInCU: 0x6F71, offset: 0x1C24A, size: 0x8, addend: 0x0, symName: __ZN2la6vector6VectorC1ERKS1_, symObjAddr: 0x380, symBinAddr: 0x100009EB8, symSize: 0x34 }
  - { offsetInCU: 0x6FAB, offset: 0x1C284, size: 0x8, addend: 0x0, symName: __ZN2la6vector6VectorC2EOS1_, symObjAddr: 0x3B4, symBinAddr: 0x100009EEC, symSize: 0x50 }
  - { offsetInCU: 0x6FE5, offset: 0x1C2BE, size: 0x8, addend: 0x0, symName: __ZNSt3__16vectorIdNS_9allocatorIdEEEC1B8ne180100EOS3_, symObjAddr: 0x404, symBinAddr: 0x100009F3C, symSize: 0x34 }
  - { offsetInCU: 0x7020, offset: 0x1C2F9, size: 0x8, addend: 0x0, symName: __ZN2la6vector6VectorC1EOS1_, symObjAddr: 0x438, symBinAddr: 0x100009F70, symSize: 0x34 }
  - { offsetInCU: 0x705A, offset: 0x1C333, size: 0x8, addend: 0x0, symName: __ZN2la6vector6VectorclEm, symObjAddr: 0x46C, symBinAddr: 0x100009FA4, symSize: 0xA8 }
  - { offsetInCU: 0x7090, offset: 0x1C369, size: 0x8, addend: 0x0, symName: __ZNK2la6vector6VectorclEm, symObjAddr: 0x56C, symBinAddr: 0x10000A04C, symSize: 0xA8 }
  - { offsetInCU: 0x70C6, offset: 0x1C39F, size: 0x8, addend: 0x0, symName: __ZN2la6vector6VectoraSERKS1_, symObjAddr: 0x638, symBinAddr: 0x10000A0F4, symSize: 0x64 }
  - { offsetInCU: 0x70FC, offset: 0x1C3D5, size: 0x8, addend: 0x0, symName: __ZN2la6vector6VectoraSEOS1_, symObjAddr: 0x704, symBinAddr: 0x10000A158, symSize: 0x6C }
  - { offsetInCU: 0x7132, offset: 0x1C40B, size: 0x8, addend: 0x0, symName: __ZNSt3__16vectorIdNS_9allocatorIdEEEaSB8ne180100EOS3_, symObjAddr: 0x770, symBinAddr: 0x10000A1C4, symSize: 0x34 }
  - { offsetInCU: 0x7169, offset: 0x1C442, size: 0x8, addend: 0x0, symName: __ZNK2la6vector6VectorplERKS1_, symObjAddr: 0x7A4, symBinAddr: 0x10000A1F8, symSize: 0x174 }
  - { offsetInCU: 0x71CA, offset: 0x1C4A3, size: 0x8, addend: 0x0, symName: __ZNK2la6vector6VectormiERKS1_, symObjAddr: 0x944, symBinAddr: 0x10000A36C, symSize: 0x174 }
  - { offsetInCU: 0x722B, offset: 0x1C504, size: 0x8, addend: 0x0, symName: __ZNK2la6vector6VectormlERKS1_, symObjAddr: 0xAB8, symBinAddr: 0x10000A4E0, symSize: 0x11C }
  - { offsetInCU: 0x728B, offset: 0x1C564, size: 0x8, addend: 0x0, symName: __ZNK2la6vector6VectormlEd, symObjAddr: 0xBD4, symBinAddr: 0x10000A5FC, symSize: 0xE8 }
  - { offsetInCU: 0x72EC, offset: 0x1C5C5, size: 0x8, addend: 0x0, symName: __ZNK2la6vector6VectoreqERKS1_, symObjAddr: 0xCBC, symBinAddr: 0x10000A6E4, symSize: 0x100 }
  - { offsetInCU: 0x733E, offset: 0x1C617, size: 0x8, addend: 0x0, symName: __ZNK2la6vector6VectorneERKS1_, symObjAddr: 0xDBC, symBinAddr: 0x10000A7E4, symSize: 0x34 }
  - { offsetInCU: 0x7374, offset: 0x1C64D, size: 0x8, addend: 0x0, symName: __ZN2la6vector6Vector5zerosEm, symObjAddr: 0xDF0, symBinAddr: 0x10000A818, symSize: 0x3C }
  - { offsetInCU: 0x7399, offset: 0x1C672, size: 0x8, addend: 0x0, symName: __ZN2la6vector6Vector4onesEm, symObjAddr: 0xE2C, symBinAddr: 0x10000A854, symSize: 0x3C }
  - { offsetInCU: 0x73D7, offset: 0x1C6B0, size: 0x8, addend: 0x0, symName: __ZNSt3__16vectorIdNS_9allocatorIdEEEC2B8ne180100EOS3_, symObjAddr: 0x2A18, symBinAddr: 0x10000A968, symSize: 0xC4 }
  - { offsetInCU: 0x7412, offset: 0x1C6EB, size: 0x8, addend: 0x0, symName: __ZNSt3__16vectorIdNS_9allocatorIdEEE13__move_assignERS3_NS_17integral_constantIbLb1EEE, symObjAddr: 0x3044, symBinAddr: 0x10000AA2C, symSize: 0x94 }
  - { offsetInCU: 0x7454, offset: 0x1C72D, size: 0x8, addend: 0x0, symName: __ZNSt3__16vectorIdNS_9allocatorIdEEE19__move_assign_allocB8ne180100ERS3_, symObjAddr: 0x30D8, symBinAddr: 0x10000AAC0, symSize: 0x2C }
  - { offsetInCU: 0x7489, offset: 0x1C762, size: 0x8, addend: 0x0, symName: __ZNSt3__16vectorIdNS_9allocatorIdEEE19__move_assign_allocB8ne180100ERS3_NS_17integral_constantIbLb1EEE, symObjAddr: 0x3104, symBinAddr: 0x10000AAEC, symSize: 0x38 }
  - { offsetInCU: 0x54F6, offset: 0x21CC9, size: 0x8, addend: 0x0, symName: __ZNSt3__14endlB8ne180100IcNS_11char_traitsIcEEEERNS_13basic_ostreamIT_T0_EES7_, symObjAddr: 0x20C, symBinAddr: 0x10000ACE8, symSize: 0x58 }
  - { offsetInCU: 0x7B7A, offset: 0x2434D, size: 0x8, addend: 0x0, symName: _main, symObjAddr: 0x0, symBinAddr: 0x10000AB24, symSize: 0x198 }
  - { offsetInCU: 0x7BC1, offset: 0x24394, size: 0x8, addend: 0x0, symName: __ZNSt3__113basic_ostreamIcNS_11char_traitsIcEEElsB8ne180100EPFRS3_S4_E, symObjAddr: 0x1E0, symBinAddr: 0x10000ACBC, symSize: 0x2C }
...
